---
triple:          'arm64-apple-darwin'
binary-path:     a.out
relocations:
  - { offsetInCU: 0x39, offset: 0x39, size: 0x8, addend: 0x0, symName: __ZN2NN18activationFunctionE, symObjAddr: 0xFE78, symBinAddr: 0x100018390, symSize: 0x0 }
  - { offsetInCU: 0xA24B, offset: 0xA24B, size: 0x8, addend: 0x0, symName: __ZNSt3__17advanceB7v160006IPNS_6vectorIdNS_9allocatorIdEEEEmmvEEvRT_T0_, symObjAddr: 0x32E8, symBinAddr: 0x100005908, symSize: 0x50 }
  - { offsetInCU: 0xA69B, offset: 0xA69B, size: 0x8, addend: 0x0, symName: __ZNSt3__17advanceB7v160006IPNS_6vectorINS1_IdNS_9allocatorIdEEEENS2_IS4_EEEEmmvEEvRT_T0_, symObjAddr: 0x4E40, symBinAddr: 0x100007460, symSize: 0x50 }
  - { offsetInCU: 0xAAEF, offset: 0xAAEF, size: 0x8, addend: 0x0, symName: __ZNSt3__17advanceB7v160006IP9dataPointmmvEEvRT_T0_, symObjAddr: 0x7CD8, symBinAddr: 0x10000A2F8, symSize: 0x50 }
  - { offsetInCU: 0xAEAE, offset: 0xAEAE, size: 0x8, addend: 0x0, symName: __ZNSt3__17advanceB7v160006IPmmmvEEvRT_T0_, symObjAddr: 0x9114, symBinAddr: 0x10000B734, symSize: 0x50 }
  - { offsetInCU: 0xB49C, offset: 0xB49C, size: 0x8, addend: 0x0, symName: __ZNSt3__17advanceB7v160006IPdmmvEEvRT_T0_, symObjAddr: 0xCF5C, symBinAddr: 0x10000F57C, symSize: 0x50 }
  - { offsetInCU: 0xB823, offset: 0xB823, size: 0x8, addend: 0x0, symName: __ZNSt3__124__put_character_sequenceB7v160006IcNS_11char_traitsIcEEEERNS_13basic_ostreamIT_T0_EES7_PKS4_m, symObjAddr: 0xEC04, symBinAddr: 0x100011224, symSize: 0x1EC }
  - { offsetInCU: 0xD39B, offset: 0xD39B, size: 0x8, addend: 0x0, symName: __ZNSt3__1neB7v160006IPKmEEbRKNS_11__wrap_iterIT_EES7_, symObjAddr: 0x890, symBinAddr: 0x100002EB0, symSize: 0x34 }
  - { offsetInCU: 0xD3DE, offset: 0xD3DE, size: 0x8, addend: 0x0, symName: __ZNSt3__1neB7v160006IPNS_6vectorINS1_IdNS_9allocatorIdEEEENS2_IS4_EEEEEEbRKNS_11__wrap_iterIT_EESC_, symObjAddr: 0x9F0, symBinAddr: 0x100003010, symSize: 0x34 }
  - { offsetInCU: 0xD421, offset: 0xD421, size: 0x8, addend: 0x0, symName: __ZNSt3__1neB7v160006IPNS_6vectorIdNS_9allocatorIdEEEEEEbRKNS_11__wrap_iterIT_EESA_, symObjAddr: 0xB54, symBinAddr: 0x100003174, symSize: 0x34 }
  - { offsetInCU: 0xD464, offset: 0xD464, size: 0x8, addend: 0x0, symName: __ZNSt3__1neB7v160006IPdEEbRKNS_11__wrap_iterIT_EES6_, symObjAddr: 0xC94, symBinAddr: 0x1000032B4, symSize: 0x34 }
  - { offsetInCU: 0xD4A7, offset: 0xD4A7, size: 0x8, addend: 0x0, symName: __ZNSt3__1neB7v160006IPmEEbRKNS_11__wrap_iterIT_EES6_, symObjAddr: 0x15D4, symBinAddr: 0x100003BF4, symSize: 0x34 }
  - { offsetInCU: 0xD4EA, offset: 0xD4EA, size: 0x8, addend: 0x0, symName: __ZNSt3__1lsB7v160006INS_11char_traitsIcEEEERNS_13basic_ostreamIcT_EES6_PKc, symObjAddr: 0x2954, symBinAddr: 0x100004F74, symSize: 0x48 }
  - { offsetInCU: 0xD530, offset: 0xD530, size: 0x8, addend: 0x0, symName: __ZNSt3__1eqB7v160006IPKmEEbRKNS_11__wrap_iterIT_EES7_, symObjAddr: 0x2E48, symBinAddr: 0x100005468, symSize: 0x48 }
  - { offsetInCU: 0xD573, offset: 0xD573, size: 0x8, addend: 0x0, symName: __ZNSt3__1eqB7v160006IPNS_6vectorINS1_IdNS_9allocatorIdEEEENS2_IS4_EEEEEEbRKNS_11__wrap_iterIT_EESC_, symObjAddr: 0x2EA8, symBinAddr: 0x1000054C8, symSize: 0x48 }
  - { offsetInCU: 0xD5B6, offset: 0xD5B6, size: 0x8, addend: 0x0, symName: __ZNSt3__1eqB7v160006IPNS_6vectorIdNS_9allocatorIdEEEEEEbRKNS_11__wrap_iterIT_EESA_, symObjAddr: 0x2F08, symBinAddr: 0x100005528, symSize: 0x48 }
  - { offsetInCU: 0xD5F9, offset: 0xD5F9, size: 0x8, addend: 0x0, symName: __ZNSt3__1eqB7v160006IPdEEbRKNS_11__wrap_iterIT_EES6_, symObjAddr: 0x2F68, symBinAddr: 0x100005588, symSize: 0x48 }
  - { offsetInCU: 0xD63C, offset: 0xD63C, size: 0x8, addend: 0x0, symName: __ZNSt3__18distanceB7v160006IPNS_6vectorIdNS_9allocatorIdEEEEEENS_15iterator_traitsIT_E15difference_typeES7_S7_, symObjAddr: 0x3254, symBinAddr: 0x100005874, symSize: 0x2C }
  - { offsetInCU: 0xD67F, offset: 0xD67F, size: 0x8, addend: 0x0, symName: __ZNSt3__14copyB7v160006IPNS_6vectorIdNS_9allocatorIdEEEES5_EET0_T_S7_S6_, symObjAddr: 0x3338, symBinAddr: 0x100005958, symSize: 0x40 }
  - { offsetInCU: 0xD6D9, offset: 0xD6D9, size: 0x8, addend: 0x0, symName: __ZNSt3__125__debug_db_invalidate_allB7v160006INS_6vectorINS1_IdNS_9allocatorIdEEEENS2_IS4_EEEEEEvPT_, symObjAddr: 0x3658, symBinAddr: 0x100005C78, symSize: 0x10 }
  - { offsetInCU: 0xD70A, offset: 0xD70A, size: 0x8, addend: 0x0, symName: __ZNSt3__110__distanceB7v160006IPNS_6vectorIdNS_9allocatorIdEEEEEENS_15iterator_traitsIT_E15difference_typeES7_S7_NS_26random_access_iterator_tagE, symObjAddr: 0x3668, symBinAddr: 0x100005C88, symSize: 0x28 }
  - { offsetInCU: 0xD757, offset: 0xD757, size: 0x8, addend: 0x0, symName: __ZNSt3__121__convert_to_integralB7v160006Em, symObjAddr: 0x36F0, symBinAddr: 0x100005D10, symSize: 0x14 }
  - { offsetInCU: 0xD783, offset: 0xD783, size: 0x8, addend: 0x0, symName: __ZNSt3__19__advanceB7v160006IPNS_6vectorIdNS_9allocatorIdEEEEEEvRT_NS_15iterator_traitsIS6_E15difference_typeENS_26random_access_iterator_tagE, symObjAddr: 0x3704, symBinAddr: 0x100005D24, symSize: 0x30 }
  - { offsetInCU: 0xD7CC, offset: 0xD7CC, size: 0x8, addend: 0x0, symName: __ZNSt3__16__copyB7v160006INS_17_ClassicAlgPolicyEPNS_6vectorIdNS_9allocatorIdEEEES6_S6_EENS_4pairIT0_T2_EES8_T1_S9_, symObjAddr: 0x3734, symBinAddr: 0x100005D54, symSize: 0x44 }
  - { offsetInCU: 0xD838, offset: 0xD838, size: 0x8, addend: 0x0, symName: __ZNSt3__123__dispatch_copy_or_moveB7v160006INS_17_ClassicAlgPolicyENS_11__copy_loopIS1_EENS_14__copy_trivialEPNS_6vectorIdNS_9allocatorIdEEEES9_S9_EENS_4pairIT2_T4_EESB_T3_SC_, symObjAddr: 0x3778, symBinAddr: 0x100005D98, symSize: 0x44 }
  - { offsetInCU: 0xD8B6, offset: 0xD8B6, size: 0x8, addend: 0x0, symName: __ZNSt3__121__unwrap_and_dispatchB7v160006INS_10__overloadINS_11__copy_loopINS_17_ClassicAlgPolicyEEENS_14__copy_trivialEEEPNS_6vectorIdNS_9allocatorIdEEEESB_SB_Li0EEENS_4pairIT0_T2_EESD_T1_SE_, symObjAddr: 0x37BC, symBinAddr: 0x100005DDC, symSize: 0xB4 }
  - { offsetInCU: 0xD944, offset: 0xD944, size: 0x8, addend: 0x0, symName: __ZNSt3__114__unwrap_rangeB7v160006IPNS_6vectorIdNS_9allocatorIdEEEES5_EENS_4pairIT0_S7_EET_S9_, symObjAddr: 0x3870, symBinAddr: 0x100005E90, symSize: 0x60 }
  - { offsetInCU: 0xDB3D, offset: 0xDB3D, size: 0x8, addend: 0x0, symName: __ZNSt3__113__unwrap_iterB7v160006IPNS_6vectorIdNS_9allocatorIdEEEENS_18__unwrap_iter_implIS5_Lb1EEELi0EEEDTclsrT0_8__unwrapclsr3stdE7declvalIT_EEEES9_, symObjAddr: 0x3958, symBinAddr: 0x100005F78, symSize: 0x24 }
  - { offsetInCU: 0xDB81, offset: 0xDB81, size: 0x8, addend: 0x0, symName: __ZNSt3__19make_pairB7v160006IPNS_6vectorIdNS_9allocatorIdEEEES5_EENS_4pairINS_18__unwrap_ref_decayIT_E4typeENS7_IT0_E4typeEEEOS8_OSB_, symObjAddr: 0x397C, symBinAddr: 0x100005F9C, symSize: 0x38 }
  - { offsetInCU: 0xDBD0, offset: 0xDBD0, size: 0x8, addend: 0x0, symName: __ZNSt3__114__rewrap_rangeB7v160006IPNS_6vectorIdNS_9allocatorIdEEEES5_EET_S6_T0_, symObjAddr: 0x39B4, symBinAddr: 0x100005FD4, symSize: 0x2C }
  - { offsetInCU: 0xDC1C, offset: 0xDC1C, size: 0x8, addend: 0x0, symName: __ZNSt3__113__rewrap_iterB7v160006IPNS_6vectorIdNS_9allocatorIdEEEES5_NS_18__unwrap_iter_implIS5_Lb1EEEEET_S8_T0_, symObjAddr: 0x39E0, symBinAddr: 0x100006000, symSize: 0x3C }
  - { offsetInCU: 0xDCC4, offset: 0xDCC4, size: 0x8, addend: 0x0, symName: __ZNSt3__112__to_addressB7v160006INS_6vectorIdNS_9allocatorIdEEEEEEPT_S6_, symObjAddr: 0x3A40, symBinAddr: 0x100006060, symSize: 0x14 }
  - { offsetInCU: 0xDCF9, offset: 0xDCF9, size: 0x8, addend: 0x0, symName: __ZNSt3__130__uninitialized_allocator_copyB7v160006INS_9allocatorINS_6vectorIdNS1_IdEEEEEEPS4_S6_S6_EET2_RT_T0_T1_S7_, symObjAddr: 0x3B64, symBinAddr: 0x100006184, symSize: 0xF4 }
  - { offsetInCU: 0xDD97, offset: 0xDD97, size: 0x8, addend: 0x0, symName: __ZNSt3__122__make_exception_guardB7v160006INS_29_AllocatorDestroyRangeReverseINS_9allocatorINS_6vectorIdNS2_IdEEEEEEPS5_EEEENS_28__exception_guard_exceptionsIT_EESA_, symObjAddr: 0x3CF8, symBinAddr: 0x100006318, symSize: 0x4C }
  - { offsetInCU: 0xDDCD, offset: 0xDDCD, size: 0x8, addend: 0x0, symName: __ZNSt3__119__allocator_destroyB7v160006INS_9allocatorINS_6vectorIdNS1_IdEEEEEENS_16reverse_iteratorIPS4_EES8_EEvRT_T0_T1_, symObjAddr: 0x3F88, symBinAddr: 0x1000065A8, symSize: 0x70 }
  - { offsetInCU: 0xDE30, offset: 0xDE30, size: 0x8, addend: 0x0, symName: __ZNSt3__1neB7v160006IPNS_6vectorIdNS_9allocatorIdEEEES5_EEbRKNS_16reverse_iteratorIT_EERKNS6_IT0_EE, symObjAddr: 0x402C, symBinAddr: 0x10000664C, symSize: 0x48 }
  - { offsetInCU: 0xDE7C, offset: 0xDE7C, size: 0x8, addend: 0x0, symName: __ZNSt3__112__to_addressB7v160006INS_16reverse_iteratorIPNS_6vectorIdNS_9allocatorIdEEEEEEvEENS_5decayIDTclsr19__to_address_helperIT_EE6__callclsr3stdE7declvalIRKS9_EEEEE4typeESB_, symObjAddr: 0x40A0, symBinAddr: 0x1000066C0, symSize: 0x24 }
  - { offsetInCU: 0xDEDB, offset: 0xDEDB, size: 0x8, addend: 0x0, symName: __ZNSt3__119__libcpp_deallocateB7v160006EPvmm, symObjAddr: 0x44FC, symBinAddr: 0x100006B1C, symSize: 0x60 }
  - { offsetInCU: 0xDF40, offset: 0xDF40, size: 0x8, addend: 0x0, symName: __ZNSt3__124__is_overaligned_for_newB7v160006Em, symObjAddr: 0x455C, symBinAddr: 0x100006B7C, symSize: 0x20 }
  - { offsetInCU: 0xDF6E, offset: 0xDF6E, size: 0x8, addend: 0x0, symName: __ZNSt3__127__do_deallocate_handle_sizeB7v160006IJSt11align_val_tEEEvPvmDpT_, symObjAddr: 0x457C, symBinAddr: 0x100006B9C, symSize: 0x30 }
  - { offsetInCU: 0xDFC1, offset: 0xDFC1, size: 0x8, addend: 0x0, symName: __ZNSt3__127__do_deallocate_handle_sizeB7v160006IJEEEvPvmDpT_, symObjAddr: 0x45AC, symBinAddr: 0x100006BCC, symSize: 0x28 }
  - { offsetInCU: 0xDFFF, offset: 0xDFFF, size: 0x8, addend: 0x0, symName: __ZNSt3__124__libcpp_operator_deleteB7v160006IJPvSt11align_val_tEEEvDpT_, symObjAddr: 0x45D4, symBinAddr: 0x100006BF4, symSize: 0x2C }
  - { offsetInCU: 0xE048, offset: 0xE048, size: 0x8, addend: 0x0, symName: __ZNSt3__124__libcpp_operator_deleteB7v160006IJPvEEEvDpT_, symObjAddr: 0x4600, symBinAddr: 0x100006C20, symSize: 0x24 }
  - { offsetInCU: 0xE07D, offset: 0xE07D, size: 0x8, addend: 0x0, symName: __ZNSt3__119__allocate_at_leastB7v160006INS_9allocatorINS_6vectorIdNS1_IdEEEEEEEENS_19__allocation_resultINS_16allocator_traitsIT_E7pointerEEERS8_m, symObjAddr: 0x46D8, symBinAddr: 0x100006CF8, symSize: 0x40 }
  - { offsetInCU: 0xE0C0, offset: 0xE0C0, size: 0x8, addend: 0x0, symName: __ZNSt3__13minB7v160006ImEERKT_S3_S3_, symObjAddr: 0x47E0, symBinAddr: 0x100006E00, symSize: 0x2C }
  - { offsetInCU: 0xE2ED, offset: 0xE2ED, size: 0x8, addend: 0x0, symName: __ZNSt3__13minB7v160006ImNS_6__lessImmEEEERKT_S5_S5_T0_, symObjAddr: 0x486C, symBinAddr: 0x100006E8C, symSize: 0x54 }
  - { offsetInCU: 0xE382, offset: 0xE382, size: 0x8, addend: 0x0, symName: __ZNSt3__120__throw_length_errorB7v160006EPKc, symObjAddr: 0x494C, symBinAddr: 0x100006F6C, symSize: 0x64 }
  - { offsetInCU: 0xE3AA, offset: 0xE3AA, size: 0x8, addend: 0x0, symName: __ZNSt3__117__libcpp_allocateB7v160006Emm, symObjAddr: 0x4AC0, symBinAddr: 0x1000070E0, symSize: 0x60 }
  - { offsetInCU: 0xE404, offset: 0xE404, size: 0x8, addend: 0x0, symName: __ZNSt3__121__libcpp_operator_newB7v160006IJmSt11align_val_tEEEPvDpT_, symObjAddr: 0x4B20, symBinAddr: 0x100007140, symSize: 0x2C }
  - { offsetInCU: 0xE451, offset: 0xE451, size: 0x8, addend: 0x0, symName: __ZNSt3__121__libcpp_operator_newB7v160006IJmEEEPvDpT_, symObjAddr: 0x4B4C, symBinAddr: 0x10000716C, symSize: 0x24 }
  - { offsetInCU: 0xE48A, offset: 0xE48A, size: 0x8, addend: 0x0, symName: __ZNSt3__13maxB7v160006ImEERKT_S3_S3_, symObjAddr: 0x4B70, symBinAddr: 0x100007190, symSize: 0x2C }
  - { offsetInCU: 0xE4CD, offset: 0xE4CD, size: 0x8, addend: 0x0, symName: __ZNSt3__13maxB7v160006ImNS_6__lessImmEEEERKT_S5_S5_T0_, symObjAddr: 0x4B9C, symBinAddr: 0x1000071BC, symSize: 0x54 }
  - { offsetInCU: 0xE527, offset: 0xE527, size: 0x8, addend: 0x0, symName: __ZNSt3__18distanceB7v160006IPNS_6vectorINS1_IdNS_9allocatorIdEEEENS2_IS4_EEEEEENS_15iterator_traitsIT_E15difference_typeES9_S9_, symObjAddr: 0x4DAC, symBinAddr: 0x1000073CC, symSize: 0x2C }
  - { offsetInCU: 0xE56A, offset: 0xE56A, size: 0x8, addend: 0x0, symName: __ZNSt3__14copyB7v160006IPNS_6vectorINS1_IdNS_9allocatorIdEEEENS2_IS4_EEEES7_EET0_T_S9_S8_, symObjAddr: 0x4E90, symBinAddr: 0x1000074B0, symSize: 0x40 }
  - { offsetInCU: 0xE5C4, offset: 0xE5C4, size: 0x8, addend: 0x0, symName: __ZNSt3__125__debug_db_invalidate_allB7v160006INS_6vectorINS1_INS1_IdNS_9allocatorIdEEEENS2_IS4_EEEENS2_IS6_EEEEEEvPT_, symObjAddr: 0x51B0, symBinAddr: 0x1000077D0, symSize: 0x10 }
  - { offsetInCU: 0xE5F5, offset: 0xE5F5, size: 0x8, addend: 0x0, symName: __ZNSt3__110__distanceB7v160006IPNS_6vectorINS1_IdNS_9allocatorIdEEEENS2_IS4_EEEEEENS_15iterator_traitsIT_E15difference_typeES9_S9_NS_26random_access_iterator_tagE, symObjAddr: 0x51C0, symBinAddr: 0x1000077E0, symSize: 0x28 }
  - { offsetInCU: 0xE642, offset: 0xE642, size: 0x8, addend: 0x0, symName: __ZNSt3__19__advanceB7v160006IPNS_6vectorINS1_IdNS_9allocatorIdEEEENS2_IS4_EEEEEEvRT_NS_15iterator_traitsIS8_E15difference_typeENS_26random_access_iterator_tagE, symObjAddr: 0x5248, symBinAddr: 0x100007868, symSize: 0x30 }
  - { offsetInCU: 0xE68B, offset: 0xE68B, size: 0x8, addend: 0x0, symName: __ZNSt3__16__copyB7v160006INS_17_ClassicAlgPolicyEPNS_6vectorINS2_IdNS_9allocatorIdEEEENS3_IS5_EEEES8_S8_EENS_4pairIT0_T2_EESA_T1_SB_, symObjAddr: 0x5278, symBinAddr: 0x100007898, symSize: 0x44 }
  - { offsetInCU: 0xE6F7, offset: 0xE6F7, size: 0x8, addend: 0x0, symName: __ZNSt3__123__dispatch_copy_or_moveB7v160006INS_17_ClassicAlgPolicyENS_11__copy_loopIS1_EENS_14__copy_trivialEPNS_6vectorINS5_IdNS_9allocatorIdEEEENS6_IS8_EEEESB_SB_EENS_4pairIT2_T4_EESD_T3_SE_, symObjAddr: 0x52BC, symBinAddr: 0x1000078DC, symSize: 0x44 }
  - { offsetInCU: 0xE775, offset: 0xE775, size: 0x8, addend: 0x0, symName: __ZNSt3__121__unwrap_and_dispatchB7v160006INS_10__overloadINS_11__copy_loopINS_17_ClassicAlgPolicyEEENS_14__copy_trivialEEEPNS_6vectorINS7_IdNS_9allocatorIdEEEENS8_ISA_EEEESD_SD_Li0EEENS_4pairIT0_T2_EESF_T1_SG_, symObjAddr: 0x5300, symBinAddr: 0x100007920, symSize: 0xB4 }
  - { offsetInCU: 0xE803, offset: 0xE803, size: 0x8, addend: 0x0, symName: __ZNSt3__114__unwrap_rangeB7v160006IPNS_6vectorINS1_IdNS_9allocatorIdEEEENS2_IS4_EEEES7_EENS_4pairIT0_S9_EET_SB_, symObjAddr: 0x53B4, symBinAddr: 0x1000079D4, symSize: 0x60 }
  - { offsetInCU: 0xE923, offset: 0xE923, size: 0x8, addend: 0x0, symName: __ZNSt3__113__unwrap_iterB7v160006IPNS_6vectorINS1_IdNS_9allocatorIdEEEENS2_IS4_EEEENS_18__unwrap_iter_implIS7_Lb1EEELi0EEEDTclsrT0_8__unwrapclsr3stdE7declvalIT_EEEESB_, symObjAddr: 0x549C, symBinAddr: 0x100007ABC, symSize: 0x24 }
  - { offsetInCU: 0xE967, offset: 0xE967, size: 0x8, addend: 0x0, symName: __ZNSt3__19make_pairB7v160006IPNS_6vectorINS1_IdNS_9allocatorIdEEEENS2_IS4_EEEES7_EENS_4pairINS_18__unwrap_ref_decayIT_E4typeENS9_IT0_E4typeEEEOSA_OSD_, symObjAddr: 0x54C0, symBinAddr: 0x100007AE0, symSize: 0x38 }
  - { offsetInCU: 0xE9B6, offset: 0xE9B6, size: 0x8, addend: 0x0, symName: __ZNSt3__114__rewrap_rangeB7v160006IPNS_6vectorINS1_IdNS_9allocatorIdEEEENS2_IS4_EEEES7_EET_S8_T0_, symObjAddr: 0x54F8, symBinAddr: 0x100007B18, symSize: 0x2C }
  - { offsetInCU: 0xEA02, offset: 0xEA02, size: 0x8, addend: 0x0, symName: __ZNSt3__113__rewrap_iterB7v160006IPNS_6vectorINS1_IdNS_9allocatorIdEEEENS2_IS4_EEEES7_NS_18__unwrap_iter_implIS7_Lb1EEEEET_SA_T0_, symObjAddr: 0x5524, symBinAddr: 0x100007B44, symSize: 0x3C }
  - { offsetInCU: 0xEAAA, offset: 0xEAAA, size: 0x8, addend: 0x0, symName: __ZNSt3__112__to_addressB7v160006INS_6vectorINS1_IdNS_9allocatorIdEEEENS2_IS4_EEEEEEPT_S8_, symObjAddr: 0x5584, symBinAddr: 0x100007BA4, symSize: 0x14 }
  - { offsetInCU: 0xEADF, offset: 0xEADF, size: 0x8, addend: 0x0, symName: __ZNSt3__130__uninitialized_allocator_copyB7v160006INS_9allocatorINS_6vectorINS2_IdNS1_IdEEEENS1_IS4_EEEEEEPS6_S8_S8_EET2_RT_T0_T1_S9_, symObjAddr: 0x569C, symBinAddr: 0x100007CBC, symSize: 0xF4 }
  - { offsetInCU: 0xEB7D, offset: 0xEB7D, size: 0x8, addend: 0x0, symName: __ZNSt3__122__make_exception_guardB7v160006INS_29_AllocatorDestroyRangeReverseINS_9allocatorINS_6vectorINS3_IdNS2_IdEEEENS2_IS5_EEEEEEPS7_EEEENS_28__exception_guard_exceptionsIT_EESC_, symObjAddr: 0x5830, symBinAddr: 0x100007E50, symSize: 0x4C }
  - { offsetInCU: 0xEBB3, offset: 0xEBB3, size: 0x8, addend: 0x0, symName: __ZNSt3__122__make_exception_guardB7v160006INS_6vectorINS1_IdNS_9allocatorIdEEEENS2_IS4_EEE16__destroy_vectorEEENS_28__exception_guard_exceptionsIT_EES9_, symObjAddr: 0x5B9C, symBinAddr: 0x1000081BC, symSize: 0x40 }
  - { offsetInCU: 0xEBE8, offset: 0xEBE8, size: 0x8, addend: 0x0, symName: __ZNSt3__119__debug_db_insert_cB7v160006INS_6vectorINS1_IdNS_9allocatorIdEEEENS2_IS4_EEEEEEvPT_, symObjAddr: 0x5C10, symBinAddr: 0x100008230, symSize: 0x10 }
  - { offsetInCU: 0xEC19, offset: 0xEC19, size: 0x8, addend: 0x0, symName: __ZNSt3__118__debug_db_erase_cB7v160006INS_6vectorINS1_IdNS_9allocatorIdEEEENS2_IS4_EEEEEEvPT_, symObjAddr: 0x5F18, symBinAddr: 0x100008538, symSize: 0x10 }
  - { offsetInCU: 0xEC4A, offset: 0xEC4A, size: 0x8, addend: 0x0, symName: __ZNSt3__119__allocator_destroyB7v160006INS_9allocatorINS_6vectorINS2_IdNS1_IdEEEENS1_IS4_EEEEEENS_16reverse_iteratorIPS6_EESA_EEvRT_T0_T1_, symObjAddr: 0x5FE0, symBinAddr: 0x100008600, symSize: 0x70 }
  - { offsetInCU: 0xECAD, offset: 0xECAD, size: 0x8, addend: 0x0, symName: __ZNSt3__1neB7v160006IPNS_6vectorINS1_IdNS_9allocatorIdEEEENS2_IS4_EEEES7_EEbRKNS_16reverse_iteratorIT_EERKNS8_IT0_EE, symObjAddr: 0x6084, symBinAddr: 0x1000086A4, symSize: 0x48 }
  - { offsetInCU: 0xECF9, offset: 0xECF9, size: 0x8, addend: 0x0, symName: __ZNSt3__112__to_addressB7v160006INS_16reverse_iteratorIPNS_6vectorINS2_IdNS_9allocatorIdEEEENS3_IS5_EEEEEEvEENS_5decayIDTclsr19__to_address_helperIT_EE6__callclsr3stdE7declvalIRKSB_EEEEE4typeESD_, symObjAddr: 0x60F8, symBinAddr: 0x100008718, symSize: 0x24 }
  - { offsetInCU: 0xED58, offset: 0xED58, size: 0x8, addend: 0x0, symName: __ZNSt3__119__allocate_at_leastB7v160006INS_9allocatorINS_6vectorINS2_IdNS1_IdEEEENS1_IS4_EEEEEEEENS_19__allocation_resultINS_16allocator_traitsIT_E7pointerEEERSA_m, symObjAddr: 0x6608, symBinAddr: 0x100008C28, symSize: 0x40 }
  - { offsetInCU: 0xED9B, offset: 0xED9B, size: 0x8, addend: 0x0, symName: __ZNSt3__1eqB7v160006IPmEEbRKNS_11__wrap_iterIT_EES6_, symObjAddr: 0x6808, symBinAddr: 0x100008E28, symSize: 0x48 }
  - { offsetInCU: 0xEDDE, offset: 0xEDDE, size: 0x8, addend: 0x0, symName: __ZNSt3__119__debug_db_insert_cB7v160006INS_6vectorI9dataPointNS_9allocatorIS2_EEEEEEvPT_, symObjAddr: 0x69F4, symBinAddr: 0x100009014, symSize: 0x10 }
  - { offsetInCU: 0xEE0F, offset: 0xEE0F, size: 0x8, addend: 0x0, symName: __ZNSt3__119__debug_db_insert_cB7v160006INS_6vectorImNS_9allocatorImEEEEEEvPT_, symObjAddr: 0x6B60, symBinAddr: 0x100009180, symSize: 0x10 }
  - { offsetInCU: 0xEE40, offset: 0xEE40, size: 0x8, addend: 0x0, symName: __ZNSt3__119__debug_db_insert_cB7v160006INS_6vectorINS1_INS1_IdNS_9allocatorIdEEEENS2_IS4_EEEENS2_IS6_EEEEEEvPT_, symObjAddr: 0x6E08, symBinAddr: 0x100009428, symSize: 0x10 }
  - { offsetInCU: 0xEE71, offset: 0xEE71, size: 0x8, addend: 0x0, symName: __ZNSt3__118__debug_db_erase_cB7v160006INS_6vectorI9dataPointNS_9allocatorIS2_EEEEEEvPT_, symObjAddr: 0x70E8, symBinAddr: 0x100009708, symSize: 0x10 }
  - { offsetInCU: 0xEEA2, offset: 0xEEA2, size: 0x8, addend: 0x0, symName: __ZNSt3__112__to_addressB7v160006I9dataPointEEPT_S3_, symObjAddr: 0x7204, symBinAddr: 0x100009824, symSize: 0x14 }
  - { offsetInCU: 0xEED7, offset: 0xEED7, size: 0x8, addend: 0x0, symName: __ZNSt3__118__debug_db_erase_cB7v160006INS_6vectorImNS_9allocatorImEEEEEEvPT_, symObjAddr: 0x75C0, symBinAddr: 0x100009BE0, symSize: 0x10 }
  - { offsetInCU: 0xEF08, offset: 0xEF08, size: 0x8, addend: 0x0, symName: __ZNSt3__112__to_addressB7v160006ImEEPT_S2_, symObjAddr: 0x76DC, symBinAddr: 0x100009CFC, symSize: 0x14 }
  - { offsetInCU: 0xEF3D, offset: 0xEF3D, size: 0x8, addend: 0x0, symName: __ZNSt3__118__debug_db_erase_cB7v160006INS_6vectorINS1_INS1_IdNS_9allocatorIdEEEENS2_IS4_EEEENS2_IS6_EEEEEEvPT_, symObjAddr: 0x7AE0, symBinAddr: 0x10000A100, symSize: 0x10 }
  - { offsetInCU: 0xEF6E, offset: 0xEF6E, size: 0x8, addend: 0x0, symName: __ZNSt3__18distanceB7v160006IP9dataPointEENS_15iterator_traitsIT_E15difference_typeES4_S4_, symObjAddr: 0x7CAC, symBinAddr: 0x10000A2CC, symSize: 0x2C }
  - { offsetInCU: 0xEFB1, offset: 0xEFB1, size: 0x8, addend: 0x0, symName: __ZNSt3__14copyB7v160006IP9dataPointS2_EET0_T_S4_S3_, symObjAddr: 0x7D28, symBinAddr: 0x10000A348, symSize: 0x40 }
  - { offsetInCU: 0xF00B, offset: 0xF00B, size: 0x8, addend: 0x0, symName: __ZNSt3__125__debug_db_invalidate_allB7v160006INS_6vectorI9dataPointNS_9allocatorIS2_EEEEEEvPT_, symObjAddr: 0x8048, symBinAddr: 0x10000A668, symSize: 0x10 }
  - { offsetInCU: 0xF03C, offset: 0xF03C, size: 0x8, addend: 0x0, symName: __ZNSt3__110__distanceB7v160006IP9dataPointEENS_15iterator_traitsIT_E15difference_typeES4_S4_NS_26random_access_iterator_tagE, symObjAddr: 0x8058, symBinAddr: 0x10000A678, symSize: 0x28 }
  - { offsetInCU: 0xF089, offset: 0xF089, size: 0x8, addend: 0x0, symName: __ZNSt3__19__advanceB7v160006IP9dataPointEEvRT_NS_15iterator_traitsIS3_E15difference_typeENS_26random_access_iterator_tagE, symObjAddr: 0x8080, symBinAddr: 0x10000A6A0, symSize: 0x30 }
  - { offsetInCU: 0xF0D2, offset: 0xF0D2, size: 0x8, addend: 0x0, symName: __ZNSt3__16__copyB7v160006INS_17_ClassicAlgPolicyEP9dataPointS3_S3_EENS_4pairIT0_T2_EES5_T1_S6_, symObjAddr: 0x80B0, symBinAddr: 0x10000A6D0, symSize: 0x44 }
  - { offsetInCU: 0xF13E, offset: 0xF13E, size: 0x8, addend: 0x0, symName: __ZNSt3__123__dispatch_copy_or_moveB7v160006INS_17_ClassicAlgPolicyENS_11__copy_loopIS1_EENS_14__copy_trivialEP9dataPointS6_S6_EENS_4pairIT2_T4_EES8_T3_S9_, symObjAddr: 0x80F4, symBinAddr: 0x10000A714, symSize: 0x44 }
  - { offsetInCU: 0xF1BC, offset: 0xF1BC, size: 0x8, addend: 0x0, symName: __ZNSt3__121__unwrap_and_dispatchB7v160006INS_10__overloadINS_11__copy_loopINS_17_ClassicAlgPolicyEEENS_14__copy_trivialEEEP9dataPointS8_S8_Li0EEENS_4pairIT0_T2_EESA_T1_SB_, symObjAddr: 0x8138, symBinAddr: 0x10000A758, symSize: 0xB4 }
  - { offsetInCU: 0xF24A, offset: 0xF24A, size: 0x8, addend: 0x0, symName: __ZNSt3__114__unwrap_rangeB7v160006IP9dataPointS2_EENS_4pairIT0_S4_EET_S6_, symObjAddr: 0x81EC, symBinAddr: 0x10000A80C, symSize: 0x60 }
  - { offsetInCU: 0xF36A, offset: 0xF36A, size: 0x8, addend: 0x0, symName: __ZNSt3__113__unwrap_iterB7v160006IP9dataPointNS_18__unwrap_iter_implIS2_Lb1EEELi0EEEDTclsrT0_8__unwrapclsr3stdE7declvalIT_EEEES6_, symObjAddr: 0x82D4, symBinAddr: 0x10000A8F4, symSize: 0x24 }
  - { offsetInCU: 0xF3AE, offset: 0xF3AE, size: 0x8, addend: 0x0, symName: __ZNSt3__19make_pairB7v160006IP9dataPointS2_EENS_4pairINS_18__unwrap_ref_decayIT_E4typeENS4_IT0_E4typeEEEOS5_OS8_, symObjAddr: 0x82F8, symBinAddr: 0x10000A918, symSize: 0x38 }
  - { offsetInCU: 0xF3FD, offset: 0xF3FD, size: 0x8, addend: 0x0, symName: __ZNSt3__114__rewrap_rangeB7v160006IP9dataPointS2_EET_S3_T0_, symObjAddr: 0x8330, symBinAddr: 0x10000A950, symSize: 0x2C }
  - { offsetInCU: 0xF449, offset: 0xF449, size: 0x8, addend: 0x0, symName: __ZNSt3__113__rewrap_iterB7v160006IP9dataPointS2_NS_18__unwrap_iter_implIS2_Lb1EEEEET_S5_T0_, symObjAddr: 0x835C, symBinAddr: 0x10000A97C, symSize: 0x3C }
  - { offsetInCU: 0xF4F1, offset: 0xF4F1, size: 0x8, addend: 0x0, symName: __ZNSt3__130__uninitialized_allocator_copyB7v160006INS_9allocatorI9dataPointEEPS2_S4_S4_EET2_RT_T0_T1_S5_, symObjAddr: 0x8508, symBinAddr: 0x10000AB28, symSize: 0xF4 }
  - { offsetInCU: 0xF58F, offset: 0xF58F, size: 0x8, addend: 0x0, symName: __ZNSt3__122__make_exception_guardB7v160006INS_29_AllocatorDestroyRangeReverseINS_9allocatorI9dataPointEEPS3_EEEENS_28__exception_guard_exceptionsIT_EES8_, symObjAddr: 0x8674, symBinAddr: 0x10000AC94, symSize: 0x4C }
  - { offsetInCU: 0xF5C5, offset: 0xF5C5, size: 0x8, addend: 0x0, symName: __ZNSt3__119__allocator_destroyB7v160006INS_9allocatorI9dataPointEENS_16reverse_iteratorIPS2_EES6_EEvRT_T0_T1_, symObjAddr: 0x8904, symBinAddr: 0x10000AF24, symSize: 0x70 }
  - { offsetInCU: 0xF628, offset: 0xF628, size: 0x8, addend: 0x0, symName: __ZNSt3__1neB7v160006IP9dataPointS2_EEbRKNS_16reverse_iteratorIT_EERKNS3_IT0_EE, symObjAddr: 0x89A8, symBinAddr: 0x10000AFC8, symSize: 0x48 }
  - { offsetInCU: 0xF674, offset: 0xF674, size: 0x8, addend: 0x0, symName: __ZNSt3__112__to_addressB7v160006INS_16reverse_iteratorIP9dataPointEEvEENS_5decayIDTclsr19__to_address_helperIT_EE6__callclsr3stdE7declvalIRKS6_EEEEE4typeES8_, symObjAddr: 0x89F0, symBinAddr: 0x10000B010, symSize: 0x24 }
  - { offsetInCU: 0xF6D3, offset: 0xF6D3, size: 0x8, addend: 0x0, symName: __ZNSt3__119__allocate_at_leastB7v160006INS_9allocatorI9dataPointEEEENS_19__allocation_resultINS_16allocator_traitsIT_E7pointerEEERS6_m, symObjAddr: 0x8D2C, symBinAddr: 0x10000B34C, symSize: 0x40 }
  - { offsetInCU: 0xF716, offset: 0xF716, size: 0x8, addend: 0x0, symName: __ZNSt3__18distanceB7v160006IPmEENS_15iterator_traitsIT_E15difference_typeES3_S3_, symObjAddr: 0x90E8, symBinAddr: 0x10000B708, symSize: 0x2C }
  - { offsetInCU: 0xF759, offset: 0xF759, size: 0x8, addend: 0x0, symName: __ZNSt3__14copyB7v160006IPmS1_EET0_T_S3_S2_, symObjAddr: 0x9164, symBinAddr: 0x10000B784, symSize: 0x40 }
  - { offsetInCU: 0xF7B3, offset: 0xF7B3, size: 0x8, addend: 0x0, symName: __ZNSt3__125__debug_db_invalidate_allB7v160006INS_6vectorImNS_9allocatorImEEEEEEvPT_, symObjAddr: 0x947C, symBinAddr: 0x10000BA9C, symSize: 0x10 }
  - { offsetInCU: 0xF7E4, offset: 0xF7E4, size: 0x8, addend: 0x0, symName: __ZNSt3__110__distanceB7v160006IPmEENS_15iterator_traitsIT_E15difference_typeES3_S3_NS_26random_access_iterator_tagE, symObjAddr: 0x948C, symBinAddr: 0x10000BAAC, symSize: 0x28 }
  - { offsetInCU: 0xF831, offset: 0xF831, size: 0x8, addend: 0x0, symName: __ZNSt3__19__advanceB7v160006IPmEEvRT_NS_15iterator_traitsIS2_E15difference_typeENS_26random_access_iterator_tagE, symObjAddr: 0x94B4, symBinAddr: 0x10000BAD4, symSize: 0x28 }
  - { offsetInCU: 0xF87A, offset: 0xF87A, size: 0x8, addend: 0x0, symName: __ZNSt3__16__copyB7v160006INS_17_ClassicAlgPolicyEPmS2_S2_EENS_4pairIT0_T2_EES4_T1_S5_, symObjAddr: 0x94DC, symBinAddr: 0x10000BAFC, symSize: 0x44 }
  - { offsetInCU: 0xF8E6, offset: 0xF8E6, size: 0x8, addend: 0x0, symName: __ZNSt3__123__dispatch_copy_or_moveB7v160006INS_17_ClassicAlgPolicyENS_11__copy_loopIS1_EENS_14__copy_trivialEPmS5_S5_EENS_4pairIT2_T4_EES7_T3_S8_, symObjAddr: 0x9520, symBinAddr: 0x10000BB40, symSize: 0x44 }
  - { offsetInCU: 0xF964, offset: 0xF964, size: 0x8, addend: 0x0, symName: __ZNSt3__121__unwrap_and_dispatchB7v160006INS_10__overloadINS_11__copy_loopINS_17_ClassicAlgPolicyEEENS_14__copy_trivialEEEPmS7_S7_Li0EEENS_4pairIT0_T2_EES9_T1_SA_, symObjAddr: 0x9564, symBinAddr: 0x10000BB84, symSize: 0xB4 }
  - { offsetInCU: 0xF9F2, offset: 0xF9F2, size: 0x8, addend: 0x0, symName: __ZNSt3__114__unwrap_rangeB7v160006IPmS1_EENS_4pairIT0_S3_EET_S5_, symObjAddr: 0x9618, symBinAddr: 0x10000BC38, symSize: 0x60 }
  - { offsetInCU: 0xFBC3, offset: 0xFBC3, size: 0x8, addend: 0x0, symName: __ZNSt3__113__unwrap_iterB7v160006IPmNS_18__unwrap_iter_implIS1_Lb1EEELi0EEEDTclsrT0_8__unwrapclsr3stdE7declvalIT_EEEES5_, symObjAddr: 0x96C0, symBinAddr: 0x10000BCE0, symSize: 0x24 }
  - { offsetInCU: 0xFC07, offset: 0xFC07, size: 0x8, addend: 0x0, symName: __ZNSt3__19make_pairB7v160006IPmS1_EENS_4pairINS_18__unwrap_ref_decayIT_E4typeENS3_IT0_E4typeEEEOS4_OS7_, symObjAddr: 0x96E4, symBinAddr: 0x10000BD04, symSize: 0x38 }
  - { offsetInCU: 0xFC56, offset: 0xFC56, size: 0x8, addend: 0x0, symName: __ZNSt3__114__rewrap_rangeB7v160006IPmS1_EET_S2_T0_, symObjAddr: 0x971C, symBinAddr: 0x10000BD3C, symSize: 0x2C }
  - { offsetInCU: 0xFCA2, offset: 0xFCA2, size: 0x8, addend: 0x0, symName: __ZNSt3__113__rewrap_iterB7v160006IPmS1_NS_18__unwrap_iter_implIS1_Lb1EEEEET_S4_T0_, symObjAddr: 0x9748, symBinAddr: 0x10000BD68, symSize: 0x3C }
  - { offsetInCU: 0xFCF7, offset: 0xFCF7, size: 0x8, addend: 0x0, symName: __ZNSt3__119__copy_trivial_implB7v160006ImmEENS_4pairIPT_PT0_EES3_S3_S5_, symObjAddr: 0x9784, symBinAddr: 0x10000BDA4, symSize: 0x84 }
  - { offsetInCU: 0xFD5F, offset: 0xFD5F, size: 0x8, addend: 0x0, symName: __ZNSt3__19make_pairB7v160006IRPmS1_EENS_4pairINS_18__unwrap_ref_decayIT_E4typeENS4_IT0_E4typeEEEOS5_OS8_, symObjAddr: 0x9808, symBinAddr: 0x10000BE28, symSize: 0x38 }
  - { offsetInCU: 0xFE01, offset: 0xFE01, size: 0x8, addend: 0x0, symName: __ZNSt3__130__uninitialized_allocator_copyB7v160006INS_9allocatorImEEPmS3_S3_EET2_RT_T0_T1_S4_, symObjAddr: 0x99D0, symBinAddr: 0x10000BFF0, symSize: 0xF4 }
  - { offsetInCU: 0xFE9F, offset: 0xFE9F, size: 0x8, addend: 0x0, symName: __ZNSt3__122__make_exception_guardB7v160006INS_29_AllocatorDestroyRangeReverseINS_9allocatorImEEPmEEEENS_28__exception_guard_exceptionsIT_EES7_, symObjAddr: 0x9B34, symBinAddr: 0x10000C154, symSize: 0x4C }
  - { offsetInCU: 0xFED5, offset: 0xFED5, size: 0x8, addend: 0x0, symName: __ZNSt3__119__allocator_destroyB7v160006INS_9allocatorImEENS_16reverse_iteratorIPmEES5_EEvRT_T0_T1_, symObjAddr: 0x9DBC, symBinAddr: 0x10000C3DC, symSize: 0x70 }
  - { offsetInCU: 0xFF38, offset: 0xFF38, size: 0x8, addend: 0x0, symName: __ZNSt3__1neB7v160006IPmS1_EEbRKNS_16reverse_iteratorIT_EERKNS2_IT0_EE, symObjAddr: 0x9E60, symBinAddr: 0x10000C480, symSize: 0x48 }
  - { offsetInCU: 0xFF84, offset: 0xFF84, size: 0x8, addend: 0x0, symName: __ZNSt3__112__to_addressB7v160006INS_16reverse_iteratorIPmEEvEENS_5decayIDTclsr19__to_address_helperIT_EE6__callclsr3stdE7declvalIRKS5_EEEEE4typeES7_, symObjAddr: 0x9EA8, symBinAddr: 0x10000C4C8, symSize: 0x24 }
  - { offsetInCU: 0xFFE3, offset: 0xFFE3, size: 0x8, addend: 0x0, symName: __ZNSt3__119__allocate_at_leastB7v160006INS_9allocatorImEEEENS_19__allocation_resultINS_16allocator_traitsIT_E7pointerEEERS5_m, symObjAddr: 0xA1C8, symBinAddr: 0x10000C7E8, symSize: 0x40 }
  - { offsetInCU: 0x10026, offset: 0x10026, size: 0x8, addend: 0x0, symName: __ZNSt3__122__make_exception_guardB7v160006INS_6vectorINS1_INS1_IdNS_9allocatorIdEEEENS2_IS4_EEEENS2_IS6_EEE16__destroy_vectorEEENS_28__exception_guard_exceptionsIT_EESB_, symObjAddr: 0xA514, symBinAddr: 0x10000CB34, symSize: 0x40 }
  - { offsetInCU: 0x1005B, offset: 0x1005B, size: 0x8, addend: 0x0, symName: __ZNSt3__115__debug_db_swapB7v160006INS_6vectorINS1_INS1_IdNS_9allocatorIdEEEENS2_IS4_EEEENS2_IS6_EEEEEEvPT_SA_, symObjAddr: 0xA838, symBinAddr: 0x10000CE58, symSize: 0x14 }
  - { offsetInCU: 0x1009A, offset: 0x1009A, size: 0x8, addend: 0x0, symName: __ZNSt3__115__debug_db_swapB7v160006INS_6vectorINS1_IdNS_9allocatorIdEEEENS2_IS4_EEEEEEvPT_S8_, symObjAddr: 0xABE8, symBinAddr: 0x10000D208, symSize: 0x14 }
  - { offsetInCU: 0x100D9, offset: 0x100D9, size: 0x8, addend: 0x0, symName: __ZNSt3__122__make_exception_guardB7v160006INS_6vectorIdNS_9allocatorIdEEE16__destroy_vectorEEENS_28__exception_guard_exceptionsIT_EES7_, symObjAddr: 0xADE4, symBinAddr: 0x10000D404, symSize: 0x40 }
  - { offsetInCU: 0x1010E, offset: 0x1010E, size: 0x8, addend: 0x0, symName: __ZNSt3__119__debug_db_insert_cB7v160006INS_6vectorIdNS_9allocatorIdEEEEEEvPT_, symObjAddr: 0xAE58, symBinAddr: 0x10000D478, symSize: 0x10 }
  - { offsetInCU: 0x1013F, offset: 0x1013F, size: 0x8, addend: 0x0, symName: __ZNSt3__119__allocate_at_leastB7v160006INS_9allocatorIdEEEENS_19__allocation_resultINS_16allocator_traitsIT_E7pointerEEERS5_m, symObjAddr: 0xB1E0, symBinAddr: 0x10000D800, symSize: 0x40 }
  - { offsetInCU: 0x10182, offset: 0x10182, size: 0x8, addend: 0x0, symName: __ZNSt3__112__to_addressB7v160006IdEEPT_S2_, symObjAddr: 0xB504, symBinAddr: 0x10000DB24, symSize: 0x14 }
  - { offsetInCU: 0x101B7, offset: 0x101B7, size: 0x8, addend: 0x0, symName: __ZNSt3__118__debug_db_erase_cB7v160006INS_6vectorIdNS_9allocatorIdEEEEEEvPT_, symObjAddr: 0xB834, symBinAddr: 0x10000DE54, symSize: 0x10 }
  - { offsetInCU: 0x101E8, offset: 0x101E8, size: 0x8, addend: 0x0, symName: __ZNSt3__115__debug_db_swapB7v160006INS_6vectorIdNS_9allocatorIdEEEEEEvPT_S6_, symObjAddr: 0xBB54, symBinAddr: 0x10000E174, symSize: 0x14 }
  - { offsetInCU: 0x10227, offset: 0x10227, size: 0x8, addend: 0x0, symName: __ZNSt3__125__debug_db_invalidate_allB7v160006INS_6vectorIdNS_9allocatorIdEEEEEEvPT_, symObjAddr: 0xBC70, symBinAddr: 0x10000E290, symSize: 0x10 }
  - { offsetInCU: 0x10258, offset: 0x10258, size: 0x8, addend: 0x0, symName: __ZNSt3__115__debug_db_swapB7v160006INS_6vectorI9dataPointNS_9allocatorIS2_EEEEEEvPT_S7_, symObjAddr: 0xBE24, symBinAddr: 0x10000E444, symSize: 0x14 }
  - { offsetInCU: 0x10297, offset: 0x10297, size: 0x8, addend: 0x0, symName: __ZNSt3__115__debug_db_swapB7v160006INS_6vectorImNS_9allocatorImEEEEEEvPT_S6_, symObjAddr: 0xBF48, symBinAddr: 0x10000E568, symSize: 0x14 }
  - { offsetInCU: 0x102D6, offset: 0x102D6, size: 0x8, addend: 0x0, symName: __ZNSt3__122__make_exception_guardB7v160006INS_6vectorI23activationFunctionIndexNS_9allocatorIS2_EEE16__destroy_vectorEEENS_28__exception_guard_exceptionsIT_EES8_, symObjAddr: 0xC0B0, symBinAddr: 0x10000E6D0, symSize: 0x40 }
  - { offsetInCU: 0x1030B, offset: 0x1030B, size: 0x8, addend: 0x0, symName: __ZNSt3__119__debug_db_insert_cB7v160006INS_6vectorI23activationFunctionIndexNS_9allocatorIS2_EEEEEEvPT_, symObjAddr: 0xC124, symBinAddr: 0x10000E744, symSize: 0x10 }
  - { offsetInCU: 0x1033C, offset: 0x1033C, size: 0x8, addend: 0x0, symName: __ZNSt3__119__allocate_at_leastB7v160006INS_9allocatorI23activationFunctionIndexEEEENS_19__allocation_resultINS_16allocator_traitsIT_E7pointerEEERS6_m, symObjAddr: 0xC4AC, symBinAddr: 0x10000EACC, symSize: 0x40 }
  - { offsetInCU: 0x1037F, offset: 0x1037F, size: 0x8, addend: 0x0, symName: __ZNSt3__112__to_addressB7v160006I23activationFunctionIndexEEPT_S3_, symObjAddr: 0xC7D0, symBinAddr: 0x10000EDF0, symSize: 0x14 }
  - { offsetInCU: 0x103B4, offset: 0x103B4, size: 0x8, addend: 0x0, symName: __ZNSt3__118__debug_db_erase_cB7v160006INS_6vectorI23activationFunctionIndexNS_9allocatorIS2_EEEEEEvPT_, symObjAddr: 0xCAFC, symBinAddr: 0x10000F11C, symSize: 0x10 }
  - { offsetInCU: 0x103E5, offset: 0x103E5, size: 0x8, addend: 0x0, symName: __ZNSt3__18distanceB7v160006IPdEENS_15iterator_traitsIT_E15difference_typeES3_S3_, symObjAddr: 0xCF30, symBinAddr: 0x10000F550, symSize: 0x2C }
  - { offsetInCU: 0x10428, offset: 0x10428, size: 0x8, addend: 0x0, symName: __ZNSt3__14copyB7v160006IPdS1_EET0_T_S3_S2_, symObjAddr: 0xCFAC, symBinAddr: 0x10000F5CC, symSize: 0x40 }
  - { offsetInCU: 0x10482, offset: 0x10482, size: 0x8, addend: 0x0, symName: __ZNSt3__110__distanceB7v160006IPdEENS_15iterator_traitsIT_E15difference_typeES3_S3_NS_26random_access_iterator_tagE, symObjAddr: 0xD18C, symBinAddr: 0x10000F7AC, symSize: 0x28 }
  - { offsetInCU: 0x104CF, offset: 0x104CF, size: 0x8, addend: 0x0, symName: __ZNSt3__19__advanceB7v160006IPdEEvRT_NS_15iterator_traitsIS2_E15difference_typeENS_26random_access_iterator_tagE, symObjAddr: 0xD1B4, symBinAddr: 0x10000F7D4, symSize: 0x28 }
  - { offsetInCU: 0x10518, offset: 0x10518, size: 0x8, addend: 0x0, symName: __ZNSt3__16__copyB7v160006INS_17_ClassicAlgPolicyEPdS2_S2_EENS_4pairIT0_T2_EES4_T1_S5_, symObjAddr: 0xD1DC, symBinAddr: 0x10000F7FC, symSize: 0x44 }
  - { offsetInCU: 0x10584, offset: 0x10584, size: 0x8, addend: 0x0, symName: __ZNSt3__123__dispatch_copy_or_moveB7v160006INS_17_ClassicAlgPolicyENS_11__copy_loopIS1_EENS_14__copy_trivialEPdS5_S5_EENS_4pairIT2_T4_EES7_T3_S8_, symObjAddr: 0xD220, symBinAddr: 0x10000F840, symSize: 0x44 }
  - { offsetInCU: 0x10602, offset: 0x10602, size: 0x8, addend: 0x0, symName: __ZNSt3__121__unwrap_and_dispatchB7v160006INS_10__overloadINS_11__copy_loopINS_17_ClassicAlgPolicyEEENS_14__copy_trivialEEEPdS7_S7_Li0EEENS_4pairIT0_T2_EES9_T1_SA_, symObjAddr: 0xD264, symBinAddr: 0x10000F884, symSize: 0xB4 }
  - { offsetInCU: 0x10690, offset: 0x10690, size: 0x8, addend: 0x0, symName: __ZNSt3__114__unwrap_rangeB7v160006IPdS1_EENS_4pairIT0_S3_EET_S5_, symObjAddr: 0xD318, symBinAddr: 0x10000F938, symSize: 0x60 }
  - { offsetInCU: 0x107DF, offset: 0x107DF, size: 0x8, addend: 0x0, symName: __ZNSt3__113__unwrap_iterB7v160006IPdNS_18__unwrap_iter_implIS1_Lb1EEELi0EEEDTclsrT0_8__unwrapclsr3stdE7declvalIT_EEEES5_, symObjAddr: 0xD3C0, symBinAddr: 0x10000F9E0, symSize: 0x24 }
  - { offsetInCU: 0x10823, offset: 0x10823, size: 0x8, addend: 0x0, symName: __ZNSt3__19make_pairB7v160006IPdS1_EENS_4pairINS_18__unwrap_ref_decayIT_E4typeENS3_IT0_E4typeEEEOS4_OS7_, symObjAddr: 0xD3E4, symBinAddr: 0x10000FA04, symSize: 0x38 }
  - { offsetInCU: 0x10872, offset: 0x10872, size: 0x8, addend: 0x0, symName: __ZNSt3__114__rewrap_rangeB7v160006IPdS1_EET_S2_T0_, symObjAddr: 0xD41C, symBinAddr: 0x10000FA3C, symSize: 0x2C }
  - { offsetInCU: 0x108BE, offset: 0x108BE, size: 0x8, addend: 0x0, symName: __ZNSt3__113__rewrap_iterB7v160006IPdS1_NS_18__unwrap_iter_implIS1_Lb1EEEEET_S4_T0_, symObjAddr: 0xD448, symBinAddr: 0x10000FA68, symSize: 0x3C }
  - { offsetInCU: 0x10913, offset: 0x10913, size: 0x8, addend: 0x0, symName: __ZNSt3__119__copy_trivial_implB7v160006IddEENS_4pairIPT_PT0_EES3_S3_S5_, symObjAddr: 0xD484, symBinAddr: 0x10000FAA4, symSize: 0x84 }
  - { offsetInCU: 0x1097B, offset: 0x1097B, size: 0x8, addend: 0x0, symName: __ZNSt3__19make_pairB7v160006IRPdS1_EENS_4pairINS_18__unwrap_ref_decayIT_E4typeENS4_IT0_E4typeEEEOS5_OS8_, symObjAddr: 0xD508, symBinAddr: 0x10000FB28, symSize: 0x38 }
  - { offsetInCU: 0x10A1D, offset: 0x10A1D, size: 0x8, addend: 0x0, symName: __ZNSt3__130__uninitialized_allocator_copyB7v160006INS_9allocatorIdEEPdS3_S3_EET2_RT_T0_T1_S4_, symObjAddr: 0xD694, symBinAddr: 0x10000FCB4, symSize: 0xF4 }
  - { offsetInCU: 0x10ABB, offset: 0x10ABB, size: 0x8, addend: 0x0, symName: __ZNSt3__122__make_exception_guardB7v160006INS_29_AllocatorDestroyRangeReverseINS_9allocatorIdEEPdEEEENS_28__exception_guard_exceptionsIT_EES7_, symObjAddr: 0xD788, symBinAddr: 0x10000FDA8, symSize: 0x4C }
  - { offsetInCU: 0x10AF1, offset: 0x10AF1, size: 0x8, addend: 0x0, symName: __ZNSt3__119__allocator_destroyB7v160006INS_9allocatorIdEENS_16reverse_iteratorIPdEES5_EEvRT_T0_T1_, symObjAddr: 0xDA10, symBinAddr: 0x100010030, symSize: 0x70 }
  - { offsetInCU: 0x10B54, offset: 0x10B54, size: 0x8, addend: 0x0, symName: __ZNSt3__1neB7v160006IPdS1_EEbRKNS_16reverse_iteratorIT_EERKNS2_IT0_EE, symObjAddr: 0xDAB4, symBinAddr: 0x1000100D4, symSize: 0x48 }
  - { offsetInCU: 0x10BA0, offset: 0x10BA0, size: 0x8, addend: 0x0, symName: __ZNSt3__112__to_addressB7v160006INS_16reverse_iteratorIPdEEvEENS_5decayIDTclsr19__to_address_helperIT_EE6__callclsr3stdE7declvalIRKS5_EEEEE4typeES7_, symObjAddr: 0xDAFC, symBinAddr: 0x10001011C, symSize: 0x24 }
  - { offsetInCU: 0x10BFF, offset: 0x10BFF, size: 0x8, addend: 0x0, symName: __ZNSt3__142__uninitialized_allocator_move_if_noexceptB7v160006INS_9allocatorIdEENS_16reverse_iteratorIPdEES5_dvEET1_RT_T0_S9_S6_, symObjAddr: 0xE1E4, symBinAddr: 0x100010804, symSize: 0x78 }
  - { offsetInCU: 0x10C7C, offset: 0x10C7C, size: 0x8, addend: 0x0, symName: __ZNSt3__14swapB7v160006IPdEENS_9enable_ifIXaasr21is_move_constructibleIT_EE5valuesr18is_move_assignableIS3_EE5valueEvE4typeERS3_S6_, symObjAddr: 0xE25C, symBinAddr: 0x10001087C, symSize: 0x3C }
  - { offsetInCU: 0x10CCD, offset: 0x10CCD, size: 0x8, addend: 0x0, symName: __ZNSt3__14moveB7v160006INS_16reverse_iteratorIPdEES3_EET0_T_S5_S4_, symObjAddr: 0xE298, symBinAddr: 0x1000108B8, symSize: 0x78 }
  - { offsetInCU: 0x10D27, offset: 0x10D27, size: 0x8, addend: 0x0, symName: __ZNSt3__16__moveB7v160006INS_17_ClassicAlgPolicyENS_16reverse_iteratorIPdEES4_S4_EENS_4pairIT0_T2_EES6_T1_S7_, symObjAddr: 0xE310, symBinAddr: 0x100010930, symSize: 0x64 }
  - { offsetInCU: 0x10D93, offset: 0x10D93, size: 0x8, addend: 0x0, symName: __ZNSt3__123__dispatch_copy_or_moveB7v160006INS_17_ClassicAlgPolicyENS_11__move_loopIS1_EENS_14__move_trivialENS_16reverse_iteratorIPdEES7_S7_EENS_4pairIT2_T4_EES9_T3_SA_, symObjAddr: 0xE374, symBinAddr: 0x100010994, symSize: 0x64 }
  - { offsetInCU: 0x10E11, offset: 0x10E11, size: 0x8, addend: 0x0, symName: __ZNSt3__121__unwrap_and_dispatchB7v160006INS_10__overloadINS_11__move_loopINS_17_ClassicAlgPolicyEEENS_14__move_trivialEEENS_16reverse_iteratorIPdEES9_S9_Li0EEENS_4pairIT0_T2_EESB_T1_SC_, symObjAddr: 0xE3D8, symBinAddr: 0x1000109F8, symSize: 0x12C }
  - { offsetInCU: 0x10EA1, offset: 0x10EA1, size: 0x8, addend: 0x0, symName: __ZNSt3__114__unwrap_rangeB7v160006INS_16reverse_iteratorIPdEES3_EENS_4pairIT0_S5_EET_S7_, symObjAddr: 0xE504, symBinAddr: 0x100010B24, symSize: 0x84 }
  - { offsetInCU: 0x11013, offset: 0x11013, size: 0x8, addend: 0x0, symName: __ZNSt3__113__unwrap_iterB7v160006INS_16reverse_iteratorIPdEENS_18__unwrap_iter_implIS3_Lb0EEELi0EEEDTclsrT0_8__unwrapclsr3stdE7declvalIT_EEEES7_, symObjAddr: 0xE628, symBinAddr: 0x100010C48, symSize: 0x44 }
  - { offsetInCU: 0x11057, offset: 0x11057, size: 0x8, addend: 0x0, symName: __ZNSt3__19make_pairB7v160006INS_16reverse_iteratorIPdEES3_EENS_4pairINS_18__unwrap_ref_decayIT_E4typeENS5_IT0_E4typeEEEOS6_OS9_, symObjAddr: 0xE66C, symBinAddr: 0x100010C8C, symSize: 0x38 }
  - { offsetInCU: 0x110A6, offset: 0x110A6, size: 0x8, addend: 0x0, symName: __ZNSt3__114__rewrap_rangeB7v160006INS_16reverse_iteratorIPdEES3_EET_S4_T0_, symObjAddr: 0xE6A4, symBinAddr: 0x100010CC4, symSize: 0x5C }
  - { offsetInCU: 0x110F2, offset: 0x110F2, size: 0x8, addend: 0x0, symName: __ZNSt3__113__rewrap_iterB7v160006INS_16reverse_iteratorIPdEES3_NS_18__unwrap_iter_implIS3_Lb0EEEEET_S6_T0_, symObjAddr: 0xE700, symBinAddr: 0x100010D20, symSize: 0x74 }
  - { offsetInCU: 0x111F9, offset: 0x111F9, size: 0x8, addend: 0x0, symName: __ZNSt3__116__pad_and_outputB7v160006IcNS_11char_traitsIcEEEENS_19ostreambuf_iteratorIT_T0_EES6_PKS4_S8_S8_RNS_8ios_baseES4_, symObjAddr: 0xEE40, symBinAddr: 0x100011460, symSize: 0x240 }
  - { offsetInCU: 0x112C8, offset: 0x112C8, size: 0x8, addend: 0x0, symName: __ZNSt3__119__debug_db_insert_cB7v160006INS_12basic_stringIcNS_11char_traitsIcEENS_9allocatorIcEEEEEEvPT_, symObjAddr: 0xF2F4, symBinAddr: 0x100011914, symSize: 0x10 }
  - { offsetInCU: 0x112F9, offset: 0x112F9, size: 0x8, addend: 0x0, symName: __ZNSt3__112__to_addressB7v160006IcEEPT_S2_, symObjAddr: 0xF3C0, symBinAddr: 0x1000119E0, symSize: 0x14 }
  - { offsetInCU: 0x11361, offset: 0x11361, size: 0x8, addend: 0x0, symName: __ZNSt3__19use_facetB7v160006INS_5ctypeIcEEEERKT_RKNS_6localeE, symObjAddr: 0xF678, symBinAddr: 0x100011C98, symSize: 0x2C }
  - { offsetInCU: 0x11830, offset: 0x11830, size: 0x8, addend: 0x0, symName: __ZNSt3__118__constexpr_strlenB7v160006EPKc, symObjAddr: 0xF710, symBinAddr: 0x100011D30, symSize: 0x24 }
  - { offsetInCU: 0x11F63, offset: 0x11F63, size: 0x8, addend: 0x0, symName: __ZSt28__throw_bad_array_new_lengthB7v160006v, symObjAddr: 0x4A8C, symBinAddr: 0x1000070AC, symSize: 0x34 }
  - { offsetInCU: 0x12C16, offset: 0x12C16, size: 0x8, addend: 0x0, symName: __ZNSt3__16vectorIdNS_9allocatorIdEEE26__swap_out_circular_bufferERNS_14__split_bufferIdRS2_EE, symObjAddr: 0xDE74, symBinAddr: 0x100010494, symSize: 0x118 }
  - { offsetInCU: 0x14F6E, offset: 0x14F6E, size: 0x8, addend: 0x0, symName: __ZN12_GLOBAL__N_112sigmoid_actFEd, symObjAddr: 0x0, symBinAddr: 0x100002620, symSize: 0x38 }
  - { offsetInCU: 0x14F9B, offset: 0x14F9B, size: 0x8, addend: 0x0, symName: __ZN12_GLOBAL__N_112sigmoidPrimeEd, symObjAddr: 0x38, symBinAddr: 0x100002658, symSize: 0x44 }
  - { offsetInCU: 0x14FC8, offset: 0x14FC8, size: 0x8, addend: 0x0, symName: __ZN12_GLOBAL__N_19reLu_actFEd, symObjAddr: 0x7C, symBinAddr: 0x10000269C, symSize: 0x34 }
  - { offsetInCU: 0x14FF5, offset: 0x14FF5, size: 0x8, addend: 0x0, symName: __ZN12_GLOBAL__N_19reLuPrimeEd, symObjAddr: 0xB0, symBinAddr: 0x1000026D0, symSize: 0x24 }
  - { offsetInCU: 0x15022, offset: 0x15022, size: 0x8, addend: 0x0, symName: __ZN12_GLOBAL__N_111binary_actFEd, symObjAddr: 0xD4, symBinAddr: 0x1000026F4, symSize: 0x24 }
  - { offsetInCU: 0x1504F, offset: 0x1504F, size: 0x8, addend: 0x0, symName: __ZN12_GLOBAL__N_111binaryPrimeEd, symObjAddr: 0xF8, symBinAddr: 0x100002718, symSize: 0x14 }
  - { offsetInCU: 0x1507C, offset: 0x1507C, size: 0x8, addend: 0x0, symName: __ZN12_GLOBAL__N_111linear_actFEd, symObjAddr: 0x10C, symBinAddr: 0x10000272C, symSize: 0x14 }
  - { offsetInCU: 0x150A9, offset: 0x150A9, size: 0x8, addend: 0x0, symName: __ZN12_GLOBAL__N_111linearPrimeEd, symObjAddr: 0x120, symBinAddr: 0x100002740, symSize: 0x14 }
  - { offsetInCU: 0x150D6, offset: 0x150D6, size: 0x8, addend: 0x0, symName: __ZN12_GLOBAL__N_15sec2hEd, symObjAddr: 0x134, symBinAddr: 0x100002754, symSize: 0x48 }
  - { offsetInCU: 0x15104, offset: 0x15104, size: 0x8, addend: 0x0, symName: __ZN5modelC2ENSt3__16vectorI9dataPointNS0_9allocatorIS2_EEEENS1_ImNS3_ImEEEE, symObjAddr: 0x17C, symBinAddr: 0x10000279C, symSize: 0x4B8 }
  - { offsetInCU: 0x15370, offset: 0x15370, size: 0x8, addend: 0x0, symName: __ZNSt3__16vectorI9dataPointNS_9allocatorIS1_EEEC1B7v160006Ev, symObjAddr: 0x634, symBinAddr: 0x100002C54, symSize: 0x2C }
  - { offsetInCU: 0x1539A, offset: 0x1539A, size: 0x8, addend: 0x0, symName: __ZNSt3__16vectorImNS_9allocatorImEEEC1B7v160006Ev, symObjAddr: 0x660, symBinAddr: 0x100002C80, symSize: 0x2C }
  - { offsetInCU: 0x153C4, offset: 0x153C4, size: 0x8, addend: 0x0, symName: __ZNSt3__16vectorINS0_IdNS_9allocatorIdEEEENS1_IS3_EEEC1B7v160006Ev, symObjAddr: 0x68C, symBinAddr: 0x100002CAC, symSize: 0x2C }
  - { offsetInCU: 0x153EE, offset: 0x153EE, size: 0x8, addend: 0x0, symName: __ZNSt3__16vectorINS0_INS0_IdNS_9allocatorIdEEEENS1_IS3_EEEENS1_IS5_EEEC1B7v160006Ev, symObjAddr: 0x6B8, symBinAddr: 0x100002CD8, symSize: 0x2C }
  - { offsetInCU: 0x15418, offset: 0x15418, size: 0x8, addend: 0x0, symName: __ZNSt3__16vectorI9dataPointNS_9allocatorIS1_EEEaSB7v160006ERKS4_, symObjAddr: 0x6E4, symBinAddr: 0x100002D04, symSize: 0x68 }
  - { offsetInCU: 0x1544F, offset: 0x1544F, size: 0x8, addend: 0x0, symName: __ZNSt3__16vectorImNS_9allocatorImEEEaSB7v160006ERKS3_, symObjAddr: 0x74C, symBinAddr: 0x100002D6C, symSize: 0x68 }
  - { offsetInCU: 0x15486, offset: 0x15486, size: 0x8, addend: 0x0, symName: __ZNKSt3__16vectorImNS_9allocatorImEEE4sizeB7v160006Ev, symObjAddr: 0x7B4, symBinAddr: 0x100002DD4, symSize: 0x28 }
  - { offsetInCU: 0x154AC, offset: 0x154AC, size: 0x8, addend: 0x0, symName: __ZNKSt3__16vectorI9dataPointNS_9allocatorIS1_EEEixB7v160006Em, symObjAddr: 0x7DC, symBinAddr: 0x100002DFC, symSize: 0x2C }
  - { offsetInCU: 0x154E3, offset: 0x154E3, size: 0x8, addend: 0x0, symName: __ZNKSt3__16vectorIdNS_9allocatorIdEEE4sizeB7v160006Ev, symObjAddr: 0x808, symBinAddr: 0x100002E28, symSize: 0x28 }
  - { offsetInCU: 0x15509, offset: 0x15509, size: 0x8, addend: 0x0, symName: __ZNKSt3__16vectorImNS_9allocatorImEEE5beginB7v160006Ev, symObjAddr: 0x830, symBinAddr: 0x100002E50, symSize: 0x30 }
  - { offsetInCU: 0x15531, offset: 0x15531, size: 0x8, addend: 0x0, symName: __ZNKSt3__16vectorImNS_9allocatorImEEE3endB7v160006Ev, symObjAddr: 0x860, symBinAddr: 0x100002E80, symSize: 0x30 }
  - { offsetInCU: 0x15559, offset: 0x15559, size: 0x8, addend: 0x0, symName: __ZNKSt3__111__wrap_iterIPKmEdeB7v160006Ev, symObjAddr: 0x8C4, symBinAddr: 0x100002EE4, symSize: 0x18 }
  - { offsetInCU: 0x1557F, offset: 0x1557F, size: 0x8, addend: 0x0, symName: __ZNSt3__111__wrap_iterIPKmEppB7v160006Ev, symObjAddr: 0x8DC, symBinAddr: 0x100002EFC, symSize: 0x20 }
  - { offsetInCU: 0x155A5, offset: 0x155A5, size: 0x8, addend: 0x0, symName: __ZNSt3__16vectorINS0_INS0_IdNS_9allocatorIdEEEENS1_IS3_EEEENS1_IS5_EEEC1Em, symObjAddr: 0x8FC, symBinAddr: 0x100002F1C, symSize: 0x34 }
  - { offsetInCU: 0x155E0, offset: 0x155E0, size: 0x8, addend: 0x0, symName: __ZNSt3__16vectorINS0_INS0_IdNS_9allocatorIdEEEENS1_IS3_EEEENS1_IS5_EEEaSB7v160006EOS7_, symObjAddr: 0x930, symBinAddr: 0x100002F50, symSize: 0x34 }
  - { offsetInCU: 0x15617, offset: 0x15617, size: 0x8, addend: 0x0, symName: __ZNSt3__16vectorINS0_INS0_IdNS_9allocatorIdEEEENS1_IS3_EEEENS1_IS5_EEED1B7v160006Ev, symObjAddr: 0x964, symBinAddr: 0x100002F84, symSize: 0x2C }
  - { offsetInCU: 0x15641, offset: 0x15641, size: 0x8, addend: 0x0, symName: __ZNSt3__16vectorINS0_INS0_IdNS_9allocatorIdEEEENS1_IS3_EEEENS1_IS5_EEE5beginB7v160006Ev, symObjAddr: 0x990, symBinAddr: 0x100002FB0, symSize: 0x30 }
  - { offsetInCU: 0x15669, offset: 0x15669, size: 0x8, addend: 0x0, symName: __ZNSt3__16vectorINS0_INS0_IdNS_9allocatorIdEEEENS1_IS3_EEEENS1_IS5_EEE3endB7v160006Ev, symObjAddr: 0x9C0, symBinAddr: 0x100002FE0, symSize: 0x30 }
  - { offsetInCU: 0x15691, offset: 0x15691, size: 0x8, addend: 0x0, symName: __ZNKSt3__111__wrap_iterIPNS_6vectorINS1_IdNS_9allocatorIdEEEENS2_IS4_EEEEEdeB7v160006Ev, symObjAddr: 0xA24, symBinAddr: 0x100003044, symSize: 0x18 }
  - { offsetInCU: 0x156B7, offset: 0x156B7, size: 0x8, addend: 0x0, symName: __ZNKSt3__16vectorImNS_9allocatorImEEEixB7v160006Em, symObjAddr: 0xA3C, symBinAddr: 0x10000305C, symSize: 0x24 }
  - { offsetInCU: 0x156EE, offset: 0x156EE, size: 0x8, addend: 0x0, symName: __ZNSt3__16vectorINS0_IdNS_9allocatorIdEEEENS1_IS3_EEEC1Em, symObjAddr: 0xA60, symBinAddr: 0x100003080, symSize: 0x34 }
  - { offsetInCU: 0x15729, offset: 0x15729, size: 0x8, addend: 0x0, symName: __ZNSt3__16vectorINS0_IdNS_9allocatorIdEEEENS1_IS3_EEEaSB7v160006EOS5_, symObjAddr: 0xA94, symBinAddr: 0x1000030B4, symSize: 0x34 }
  - { offsetInCU: 0x15760, offset: 0x15760, size: 0x8, addend: 0x0, symName: __ZNSt3__16vectorINS0_IdNS_9allocatorIdEEEENS1_IS3_EEED1B7v160006Ev, symObjAddr: 0xAC8, symBinAddr: 0x1000030E8, symSize: 0x2C }
  - { offsetInCU: 0x1578A, offset: 0x1578A, size: 0x8, addend: 0x0, symName: __ZNSt3__16vectorINS0_IdNS_9allocatorIdEEEENS1_IS3_EEE5beginB7v160006Ev, symObjAddr: 0xAF4, symBinAddr: 0x100003114, symSize: 0x30 }
  - { offsetInCU: 0x157B2, offset: 0x157B2, size: 0x8, addend: 0x0, symName: __ZNSt3__16vectorINS0_IdNS_9allocatorIdEEEENS1_IS3_EEE3endB7v160006Ev, symObjAddr: 0xB24, symBinAddr: 0x100003144, symSize: 0x30 }
  - { offsetInCU: 0x157DA, offset: 0x157DA, size: 0x8, addend: 0x0, symName: __ZNKSt3__111__wrap_iterIPNS_6vectorIdNS_9allocatorIdEEEEEdeB7v160006Ev, symObjAddr: 0xB88, symBinAddr: 0x1000031A8, symSize: 0x18 }
  - { offsetInCU: 0x15800, offset: 0x15800, size: 0x8, addend: 0x0, symName: __ZNSt3__16vectorIdNS_9allocatorIdEEEC1Em, symObjAddr: 0xBA0, symBinAddr: 0x1000031C0, symSize: 0x34 }
  - { offsetInCU: 0x1583B, offset: 0x1583B, size: 0x8, addend: 0x0, symName: __ZNSt3__16vectorIdNS_9allocatorIdEEEaSB7v160006EOS3_, symObjAddr: 0xBD4, symBinAddr: 0x1000031F4, symSize: 0x34 }
  - { offsetInCU: 0x15872, offset: 0x15872, size: 0x8, addend: 0x0, symName: __ZNSt3__16vectorIdNS_9allocatorIdEEED1B7v160006Ev, symObjAddr: 0xC08, symBinAddr: 0x100003228, symSize: 0x2C }
  - { offsetInCU: 0x1589C, offset: 0x1589C, size: 0x8, addend: 0x0, symName: __ZNSt3__16vectorIdNS_9allocatorIdEEE5beginB7v160006Ev, symObjAddr: 0xC34, symBinAddr: 0x100003254, symSize: 0x30 }
  - { offsetInCU: 0x158C4, offset: 0x158C4, size: 0x8, addend: 0x0, symName: __ZNSt3__16vectorIdNS_9allocatorIdEEE3endB7v160006Ev, symObjAddr: 0xC64, symBinAddr: 0x100003284, symSize: 0x30 }
  - { offsetInCU: 0x158EC, offset: 0x158EC, size: 0x8, addend: 0x0, symName: __ZNKSt3__111__wrap_iterIPdEdeB7v160006Ev, symObjAddr: 0xCC8, symBinAddr: 0x1000032E8, symSize: 0x18 }
  - { offsetInCU: 0x15912, offset: 0x15912, size: 0x8, addend: 0x0, symName: __ZNSt3__111__wrap_iterIPdEppB7v160006Ev, symObjAddr: 0xCE0, symBinAddr: 0x100003300, symSize: 0x20 }
  - { offsetInCU: 0x15938, offset: 0x15938, size: 0x8, addend: 0x0, symName: __ZNSt3__111__wrap_iterIPNS_6vectorIdNS_9allocatorIdEEEEEppB7v160006Ev, symObjAddr: 0xD00, symBinAddr: 0x100003320, symSize: 0x20 }
  - { offsetInCU: 0x1595E, offset: 0x1595E, size: 0x8, addend: 0x0, symName: __ZNSt3__111__wrap_iterIPNS_6vectorINS1_IdNS_9allocatorIdEEEENS2_IS4_EEEEEppB7v160006Ev, symObjAddr: 0xD20, symBinAddr: 0x100003340, symSize: 0x20 }
  - { offsetInCU: 0x15984, offset: 0x15984, size: 0x8, addend: 0x0, symName: __ZNSt3__16vectorImNS_9allocatorImEEED1B7v160006Ev, symObjAddr: 0xD40, symBinAddr: 0x100003360, symSize: 0x2C }
  - { offsetInCU: 0x159AE, offset: 0x159AE, size: 0x8, addend: 0x0, symName: __ZNSt3__16vectorI9dataPointNS_9allocatorIS1_EEED1B7v160006Ev, symObjAddr: 0xD6C, symBinAddr: 0x10000338C, symSize: 0x2C }
  - { offsetInCU: 0x159D8, offset: 0x159D8, size: 0x8, addend: 0x0, symName: __ZN5modelC1ENSt3__16vectorI9dataPointNS0_9allocatorIS2_EEEENS1_ImNS3_ImEEEE, symObjAddr: 0xD98, symBinAddr: 0x1000033B8, symSize: 0x3C }
  - { offsetInCU: 0x15A22, offset: 0x15A22, size: 0x8, addend: 0x0, symName: __ZN5modelC2Ev, symObjAddr: 0xDD4, symBinAddr: 0x1000033F4, symSize: 0xDC }
  - { offsetInCU: 0x15A4E, offset: 0x15A4E, size: 0x8, addend: 0x0, symName: __ZNSt3__16vectorI9dataPointNS_9allocatorIS1_EEEaSB7v160006EOS4_, symObjAddr: 0xEB0, symBinAddr: 0x1000034D0, symSize: 0x34 }
  - { offsetInCU: 0x15A85, offset: 0x15A85, size: 0x8, addend: 0x0, symName: __ZNSt3__16vectorImNS_9allocatorImEEEaSB7v160006EOS3_, symObjAddr: 0xEE4, symBinAddr: 0x100003504, symSize: 0x34 }
  - { offsetInCU: 0x15ABC, offset: 0x15ABC, size: 0x8, addend: 0x0, symName: __ZN5modelC1Ev, symObjAddr: 0xF18, symBinAddr: 0x100003538, symSize: 0x2C }
  - { offsetInCU: 0x15AE8, offset: 0x15AE8, size: 0x8, addend: 0x0, symName: __ZN2NNC2ER5modeld, symObjAddr: 0xF44, symBinAddr: 0x100003564, symSize: 0x54C }
  - { offsetInCU: 0x15BBF, offset: 0x15BBF, size: 0x8, addend: 0x0, symName: __ZNSt3__16vectorI23activationFunctionIndexNS_9allocatorIS1_EEEC1Em, symObjAddr: 0x1490, symBinAddr: 0x100003AB0, symSize: 0x34 }
  - { offsetInCU: 0x15C04, offset: 0x15C04, size: 0x8, addend: 0x0, symName: __ZN5modelaSERKS_, symObjAddr: 0x14C4, symBinAddr: 0x100003AE4, symSize: 0x84 }
  - { offsetInCU: 0x15C35, offset: 0x15C35, size: 0x8, addend: 0x0, symName: __ZNSt3__16vectorI9dataPointNS_9allocatorIS1_EEEixB7v160006Em, symObjAddr: 0x1548, symBinAddr: 0x100003B68, symSize: 0x2C }
  - { offsetInCU: 0x15C6C, offset: 0x15C6C, size: 0x8, addend: 0x0, symName: __ZNSt3__16vectorImNS_9allocatorImEEE5beginB7v160006Ev, symObjAddr: 0x1574, symBinAddr: 0x100003B94, symSize: 0x30 }
  - { offsetInCU: 0x15C94, offset: 0x15C94, size: 0x8, addend: 0x0, symName: __ZNSt3__16vectorImNS_9allocatorImEEE3endB7v160006Ev, symObjAddr: 0x15A4, symBinAddr: 0x100003BC4, symSize: 0x30 }
  - { offsetInCU: 0x15CBC, offset: 0x15CBC, size: 0x8, addend: 0x0, symName: __ZNKSt3__111__wrap_iterIPmEdeB7v160006Ev, symObjAddr: 0x1608, symBinAddr: 0x100003C28, symSize: 0x18 }
  - { offsetInCU: 0x15CE2, offset: 0x15CE2, size: 0x8, addend: 0x0, symName: __ZNSt3__111__wrap_iterIPmEppB7v160006Ev, symObjAddr: 0x1620, symBinAddr: 0x100003C40, symSize: 0x20 }
  - { offsetInCU: 0x15D08, offset: 0x15D08, size: 0x8, addend: 0x0, symName: __ZNSt3__16vectorI23activationFunctionIndexNS_9allocatorIS1_EEEixB7v160006Em, symObjAddr: 0x1640, symBinAddr: 0x100003C60, symSize: 0x24 }
  - { offsetInCU: 0x15D3F, offset: 0x15D3F, size: 0x8, addend: 0x0, symName: __ZNSt3__16vectorImNS_9allocatorImEEEixB7v160006Em, symObjAddr: 0x1664, symBinAddr: 0x100003C84, symSize: 0x24 }
  - { offsetInCU: 0x15D76, offset: 0x15D76, size: 0x8, addend: 0x0, symName: __ZNSt3__16vectorINS0_IdNS_9allocatorIdEEEENS1_IS3_EEEixB7v160006Em, symObjAddr: 0x1688, symBinAddr: 0x100003CA8, symSize: 0x2C }
  - { offsetInCU: 0x15DAD, offset: 0x15DAD, size: 0x8, addend: 0x0, symName: __ZNSt3__16vectorINS0_INS0_IdNS_9allocatorIdEEEENS1_IS3_EEEENS1_IS5_EEEixB7v160006Em, symObjAddr: 0x16B4, symBinAddr: 0x100003CD4, symSize: 0x2C }
  - { offsetInCU: 0x15DE4, offset: 0x15DE4, size: 0x8, addend: 0x0, symName: __ZN2NN10resetTempsEv, symObjAddr: 0x16E0, symBinAddr: 0x100003D00, symSize: 0x140 }
  - { offsetInCU: 0x15E60, offset: 0x15E60, size: 0x8, addend: 0x0, symName: __ZNSt3__16vectorI23activationFunctionIndexNS_9allocatorIS1_EEED1B7v160006Ev, symObjAddr: 0x1820, symBinAddr: 0x100003E40, symSize: 0x2C }
  - { offsetInCU: 0x15E8A, offset: 0x15E8A, size: 0x8, addend: 0x0, symName: __ZN5modelD1Ev, symObjAddr: 0x184C, symBinAddr: 0x100003E6C, symSize: 0x2C }
  - { offsetInCU: 0x15EB6, offset: 0x15EB6, size: 0x8, addend: 0x0, symName: __ZN2NNC1ER5modeld, symObjAddr: 0x1878, symBinAddr: 0x100003E98, symSize: 0x3C }
  - { offsetInCU: 0x15EFE, offset: 0x15EFE, size: 0x8, addend: 0x0, symName: __ZN2NN7forwardENSt3__16vectorIdNS0_9allocatorIdEEEES4_, symObjAddr: 0x18B4, symBinAddr: 0x100003ED4, symSize: 0x38C }
  - { offsetInCU: 0x15FDF, offset: 0x15FDF, size: 0x8, addend: 0x0, symName: __ZNSt3__16vectorIdNS_9allocatorIdEEEaSB7v160006ERKS3_, symObjAddr: 0x1C40, symBinAddr: 0x100004260, symSize: 0x68 }
  - { offsetInCU: 0x16016, offset: 0x16016, size: 0x8, addend: 0x0, symName: __ZNSt3__16vectorIdNS_9allocatorIdEEEC1B7v160006Ev, symObjAddr: 0x1CA8, symBinAddr: 0x1000042C8, symSize: 0x2C }
  - { offsetInCU: 0x16040, offset: 0x16040, size: 0x8, addend: 0x0, symName: __ZNSt3__16vectorIdNS_9allocatorIdEEEixB7v160006Em, symObjAddr: 0x1CD4, symBinAddr: 0x1000042F4, symSize: 0x24 }
  - { offsetInCU: 0x16077, offset: 0x16077, size: 0x8, addend: 0x0, symName: __ZNSt3__16vectorIdNS_9allocatorIdEEE9push_backB7v160006ERKd, symObjAddr: 0x1CF8, symBinAddr: 0x100004318, symSize: 0x6C }
  - { offsetInCU: 0x160AE, offset: 0x160AE, size: 0x8, addend: 0x0, symName: __ZN2NN4costEv, symObjAddr: 0x1D64, symBinAddr: 0x100004384, symSize: 0x1F8 }
  - { offsetInCU: 0x16154, offset: 0x16154, size: 0x8, addend: 0x0, symName: __ZNKSt3__16vectorI9dataPointNS_9allocatorIS1_EEE4sizeB7v160006Ev, symObjAddr: 0x1F5C, symBinAddr: 0x10000457C, symSize: 0x28 }
  - { offsetInCU: 0x1617F, offset: 0x1617F, size: 0x8, addend: 0x0, symName: __ZN9dataPointC1ERKS_, symObjAddr: 0x1F84, symBinAddr: 0x1000045A4, symSize: 0x34 }
  - { offsetInCU: 0x161B4, offset: 0x161B4, size: 0x8, addend: 0x0, symName: __ZNSt3__16vectorIdNS_9allocatorIdEEEC1ERKS3_, symObjAddr: 0x1FB8, symBinAddr: 0x1000045D8, symSize: 0x34 }
  - { offsetInCU: 0x161EF, offset: 0x161EF, size: 0x8, addend: 0x0, symName: __ZN9dataPointD1Ev, symObjAddr: 0x1FEC, symBinAddr: 0x10000460C, symSize: 0x2C }
  - { offsetInCU: 0x1621B, offset: 0x1621B, size: 0x8, addend: 0x0, symName: __ZN2NN8backPropEv, symObjAddr: 0x2018, symBinAddr: 0x100004638, symSize: 0x2EC }
  - { offsetInCU: 0x1633E, offset: 0x1633E, size: 0x8, addend: 0x0, symName: '__ZZN2NN8backPropEvENK3$_0clEmm', symObjAddr: 0x2304, symBinAddr: 0x100004924, symSize: 0xA8 }
  - { offsetInCU: 0x1638E, offset: 0x1638E, size: 0x8, addend: 0x0, symName: '__ZZN2NN8backPropEvENK3$_1clEmm', symObjAddr: 0x23AC, symBinAddr: 0x1000049CC, symSize: 0x184 }
  - { offsetInCU: 0x1640C, offset: 0x1640C, size: 0x8, addend: 0x0, symName: __ZN2NN15gradientDescentEv, symObjAddr: 0x2530, symBinAddr: 0x100004B50, symSize: 0x398 }
  - { offsetInCU: 0x164E0, offset: 0x164E0, size: 0x8, addend: 0x0, symName: __ZN2NN5trainEm, symObjAddr: 0x28C8, symBinAddr: 0x100004EE8, symSize: 0x8C }
  - { offsetInCU: 0x16532, offset: 0x16532, size: 0x8, addend: 0x0, symName: __ZN2NN10printStateEv, symObjAddr: 0x299C, symBinAddr: 0x100004FBC, symSize: 0x208 }
  - { offsetInCU: 0x165BC, offset: 0x165BC, size: 0x8, addend: 0x0, symName: __ZN2NN4testEv, symObjAddr: 0x2BA4, symBinAddr: 0x1000051C4, symSize: 0x2A4 }
  - { offsetInCU: 0x16688, offset: 0x16688, size: 0x8, addend: 0x0, symName: __ZNKSt3__111__wrap_iterIPKmE4baseB7v160006Ev, symObjAddr: 0x2E90, symBinAddr: 0x1000054B0, symSize: 0x18 }
  - { offsetInCU: 0x166AE, offset: 0x166AE, size: 0x8, addend: 0x0, symName: __ZNKSt3__111__wrap_iterIPNS_6vectorINS1_IdNS_9allocatorIdEEEENS2_IS4_EEEEE4baseB7v160006Ev, symObjAddr: 0x2EF0, symBinAddr: 0x100005510, symSize: 0x18 }
  - { offsetInCU: 0x166D4, offset: 0x166D4, size: 0x8, addend: 0x0, symName: __ZNKSt3__111__wrap_iterIPNS_6vectorIdNS_9allocatorIdEEEEE4baseB7v160006Ev, symObjAddr: 0x2F50, symBinAddr: 0x100005570, symSize: 0x18 }
  - { offsetInCU: 0x166FA, offset: 0x166FA, size: 0x8, addend: 0x0, symName: __ZNKSt3__111__wrap_iterIPdE4baseB7v160006Ev, symObjAddr: 0x2FB0, symBinAddr: 0x1000055D0, symSize: 0x18 }
  - { offsetInCU: 0x16720, offset: 0x16720, size: 0x8, addend: 0x0, symName: __ZNSt3__16vectorINS0_IdNS_9allocatorIdEEEENS1_IS3_EEEaSB7v160006ERKS5_, symObjAddr: 0x2FC8, symBinAddr: 0x1000055E8, symSize: 0x68 }
  - { offsetInCU: 0x16757, offset: 0x16757, size: 0x8, addend: 0x0, symName: __ZNSt3__16vectorINS0_INS0_IdNS_9allocatorIdEEEENS1_IS3_EEEENS1_IS5_EEEaSB7v160006ERKS7_, symObjAddr: 0x3030, symBinAddr: 0x100005650, symSize: 0x68 }
  - { offsetInCU: 0x1678E, offset: 0x1678E, size: 0x8, addend: 0x0, symName: __ZNSt3__16vectorINS0_IdNS_9allocatorIdEEEENS1_IS3_EEE19__copy_assign_allocB7v160006ERKS5_, symObjAddr: 0x3098, symBinAddr: 0x1000056B8, symSize: 0x2C }
  - { offsetInCU: 0x167C3, offset: 0x167C3, size: 0x8, addend: 0x0, symName: __ZNSt3__16vectorINS0_IdNS_9allocatorIdEEEENS1_IS3_EEE6assignIPS3_Li0EEEvT_S8_, symObjAddr: 0x30C4, symBinAddr: 0x1000056E4, symSize: 0x17C }
  - { offsetInCU: 0x16862, offset: 0x16862, size: 0x8, addend: 0x0, symName: __ZNSt3__16vectorINS0_IdNS_9allocatorIdEEEENS1_IS3_EEE19__copy_assign_allocB7v160006ERKS5_NS_17integral_constantIbLb0EEE, symObjAddr: 0x3240, symBinAddr: 0x100005860, symSize: 0x14 }
  - { offsetInCU: 0x1689E, offset: 0x1689E, size: 0x8, addend: 0x0, symName: __ZNKSt3__16vectorINS0_IdNS_9allocatorIdEEEENS1_IS3_EEE8capacityB7v160006Ev, symObjAddr: 0x3280, symBinAddr: 0x1000058A0, symSize: 0x40 }
  - { offsetInCU: 0x168C4, offset: 0x168C4, size: 0x8, addend: 0x0, symName: __ZNKSt3__16vectorINS0_IdNS_9allocatorIdEEEENS1_IS3_EEE4sizeB7v160006Ev, symObjAddr: 0x32C0, symBinAddr: 0x1000058E0, symSize: 0x28 }
  - { offsetInCU: 0x168EA, offset: 0x168EA, size: 0x8, addend: 0x0, symName: __ZNSt3__16vectorINS0_IdNS_9allocatorIdEEEENS1_IS3_EEE18__construct_at_endIPS3_Li0EEEvT_S8_m, symObjAddr: 0x3378, symBinAddr: 0x100005998, symSize: 0x8C }
  - { offsetInCU: 0x1695D, offset: 0x1695D, size: 0x8, addend: 0x0, symName: __ZNSt3__16vectorINS0_IdNS_9allocatorIdEEEENS1_IS3_EEE17__destruct_at_endB7v160006EPS3_, symObjAddr: 0x3404, symBinAddr: 0x100005A24, symSize: 0x60 }
  - { offsetInCU: 0x169A1, offset: 0x169A1, size: 0x8, addend: 0x0, symName: __ZNSt3__16vectorINS0_IdNS_9allocatorIdEEEENS1_IS3_EEE13__vdeallocateEv, symObjAddr: 0x3464, symBinAddr: 0x100005A84, symSize: 0x8C }
  - { offsetInCU: 0x169C9, offset: 0x169C9, size: 0x8, addend: 0x0, symName: __ZNSt3__16vectorINS0_IdNS_9allocatorIdEEEENS1_IS3_EEE11__vallocateB7v160006Em, symObjAddr: 0x34F0, symBinAddr: 0x100005B10, symSize: 0xB4 }
  - { offsetInCU: 0x16A0D, offset: 0x16A0D, size: 0x8, addend: 0x0, symName: __ZNKSt3__16vectorINS0_IdNS_9allocatorIdEEEENS1_IS3_EEE11__recommendB7v160006Em, symObjAddr: 0x35A4, symBinAddr: 0x100005BC4, symSize: 0xB4 }
  - { offsetInCU: 0x16A62, offset: 0x16A62, size: 0x8, addend: 0x0, symName: __ZNKSt3__16vectorINS0_IdNS_9allocatorIdEEEENS1_IS3_EEE9__end_capB7v160006Ev, symObjAddr: 0x3690, symBinAddr: 0x100005CB0, symSize: 0x28 }
  - { offsetInCU: 0x16A88, offset: 0x16A88, size: 0x8, addend: 0x0, symName: __ZNKSt3__117__compressed_pairIPNS_6vectorIdNS_9allocatorIdEEEENS2_IS4_EEE5firstB7v160006Ev, symObjAddr: 0x36B8, symBinAddr: 0x100005CD8, symSize: 0x24 }
  - { offsetInCU: 0x16AAE, offset: 0x16AAE, size: 0x8, addend: 0x0, symName: __ZNKSt3__122__compressed_pair_elemIPNS_6vectorIdNS_9allocatorIdEEEELi0ELb0EE5__getB7v160006Ev, symObjAddr: 0x36DC, symBinAddr: 0x100005CFC, symSize: 0x14 }
  - { offsetInCU: 0x16AF7, offset: 0x16AF7, size: 0x8, addend: 0x0, symName: __ZNKSt3__111__copy_loopINS_17_ClassicAlgPolicyEEclB7v160006IPNS_6vectorIdNS_9allocatorIdEEEES8_S8_EENS_4pairIT_T1_EESA_T0_SB_, symObjAddr: 0x38D0, symBinAddr: 0x100005EF0, symSize: 0x88 }
  - { offsetInCU: 0x16B62, offset: 0x16B62, size: 0x8, addend: 0x0, symName: __ZNSt3__118__unwrap_iter_implIPNS_6vectorIdNS_9allocatorIdEEEELb1EE8__unwrapB7v160006ES5_, symObjAddr: 0x3A1C, symBinAddr: 0x10000603C, symSize: 0x24 }
  - { offsetInCU: 0x16B8A, offset: 0x16B8A, size: 0x8, addend: 0x0, symName: __ZNSt3__14pairIPNS_6vectorIdNS_9allocatorIdEEEES5_EC1B7v160006IS5_S5_LPv0EEEOT_OT0_, symObjAddr: 0x3A54, symBinAddr: 0x100006074, symSize: 0x3C }
  - { offsetInCU: 0x16BE8, offset: 0x16BE8, size: 0x8, addend: 0x0, symName: __ZNSt3__14pairIPNS_6vectorIdNS_9allocatorIdEEEES5_EC2B7v160006IS5_S5_LPv0EEEOT_OT0_, symObjAddr: 0x3A90, symBinAddr: 0x1000060B0, symSize: 0x34 }
  - { offsetInCU: 0x16C46, offset: 0x16C46, size: 0x8, addend: 0x0, symName: __ZNSt3__118__unwrap_iter_implIPNS_6vectorIdNS_9allocatorIdEEEELb1EE8__rewrapB7v160006ES5_S5_, symObjAddr: 0x3AC4, symBinAddr: 0x1000060E4, symSize: 0x58 }
  - { offsetInCU: 0x16C90, offset: 0x16C90, size: 0x8, addend: 0x0, symName: __ZNSt3__16vectorINS0_IdNS_9allocatorIdEEEENS1_IS3_EEE21_ConstructTransactionC1B7v160006ERS5_m, symObjAddr: 0x3B28, symBinAddr: 0x100006148, symSize: 0x3C }
  - { offsetInCU: 0x16CD8, offset: 0x16CD8, size: 0x8, addend: 0x0, symName: __ZNSt3__16vectorINS0_IdNS_9allocatorIdEEEENS1_IS3_EEE7__allocB7v160006Ev, symObjAddr: 0x3C58, symBinAddr: 0x100006278, symSize: 0x28 }
  - { offsetInCU: 0x16CFE, offset: 0x16CFE, size: 0x8, addend: 0x0, symName: __ZNSt3__16vectorINS0_IdNS_9allocatorIdEEEENS1_IS3_EEE21_ConstructTransactionD1B7v160006Ev, symObjAddr: 0x3C80, symBinAddr: 0x1000062A0, symSize: 0x2C }
  - { offsetInCU: 0x16D28, offset: 0x16D28, size: 0x8, addend: 0x0, symName: __ZNSt3__16vectorINS0_IdNS_9allocatorIdEEEENS1_IS3_EEE21_ConstructTransactionC2B7v160006ERS5_m, symObjAddr: 0x3CAC, symBinAddr: 0x1000062CC, symSize: 0x4C }
  - { offsetInCU: 0x16D70, offset: 0x16D70, size: 0x8, addend: 0x0, symName: __ZNSt3__129_AllocatorDestroyRangeReverseINS_9allocatorINS_6vectorIdNS1_IdEEEEEEPS4_EC1B7v160006ERS5_RS6_S9_, symObjAddr: 0x3D44, symBinAddr: 0x100006364, symSize: 0x44 }
  - { offsetInCU: 0x16DC7, offset: 0x16DC7, size: 0x8, addend: 0x0, symName: __ZNSt3__116allocator_traitsINS_9allocatorINS_6vectorIdNS1_IdEEEEEEE9constructB7v160006IS4_JRS4_EvEEvRS5_PT_DpOT0_, symObjAddr: 0x3D88, symBinAddr: 0x1000063A8, symSize: 0x34 }
  - { offsetInCU: 0x16E1E, offset: 0x16E1E, size: 0x8, addend: 0x0, symName: __ZNSt3__128__exception_guard_exceptionsINS_29_AllocatorDestroyRangeReverseINS_9allocatorINS_6vectorIdNS2_IdEEEEEEPS5_EEE10__completeB7v160006Ev, symObjAddr: 0x3DBC, symBinAddr: 0x1000063DC, symSize: 0x1C }
  - { offsetInCU: 0x16E44, offset: 0x16E44, size: 0x8, addend: 0x0, symName: __ZNSt3__128__exception_guard_exceptionsINS_29_AllocatorDestroyRangeReverseINS_9allocatorINS_6vectorIdNS2_IdEEEEEEPS5_EEED1B7v160006Ev, symObjAddr: 0x3DD8, symBinAddr: 0x1000063F8, symSize: 0x2C }
  - { offsetInCU: 0x16E6E, offset: 0x16E6E, size: 0x8, addend: 0x0, symName: __ZNSt3__128__exception_guard_exceptionsINS_29_AllocatorDestroyRangeReverseINS_9allocatorINS_6vectorIdNS2_IdEEEEEEPS5_EEEC1B7v160006ES8_, symObjAddr: 0x3E04, symBinAddr: 0x100006424, symSize: 0x34 }
  - { offsetInCU: 0x16EA7, offset: 0x16EA7, size: 0x8, addend: 0x0, symName: __ZNSt3__128__exception_guard_exceptionsINS_29_AllocatorDestroyRangeReverseINS_9allocatorINS_6vectorIdNS2_IdEEEEEEPS5_EEEC2B7v160006ES8_, symObjAddr: 0x3E38, symBinAddr: 0x100006458, symSize: 0x30 }
  - { offsetInCU: 0x16EE0, offset: 0x16EE0, size: 0x8, addend: 0x0, symName: __ZNSt3__129_AllocatorDestroyRangeReverseINS_9allocatorINS_6vectorIdNS1_IdEEEEEEPS4_EC2B7v160006ERS5_RS6_S9_, symObjAddr: 0x3E68, symBinAddr: 0x100006488, symSize: 0x38 }
  - { offsetInCU: 0x16F37, offset: 0x16F37, size: 0x8, addend: 0x0, symName: __ZNSt3__19allocatorINS_6vectorIdNS0_IdEEEEE9constructB7v160006IS3_JRS3_EEEvPT_DpOT0_, symObjAddr: 0x3EA0, symBinAddr: 0x1000064C0, symSize: 0x30 }
  - { offsetInCU: 0x16F8D, offset: 0x16F8D, size: 0x8, addend: 0x0, symName: __ZNSt3__128__exception_guard_exceptionsINS_29_AllocatorDestroyRangeReverseINS_9allocatorINS_6vectorIdNS2_IdEEEEEEPS5_EEED2B7v160006Ev, symObjAddr: 0x3ED0, symBinAddr: 0x1000064F0, symSize: 0x50 }
  - { offsetInCU: 0x16FB7, offset: 0x16FB7, size: 0x8, addend: 0x0, symName: __ZNKSt3__129_AllocatorDestroyRangeReverseINS_9allocatorINS_6vectorIdNS1_IdEEEEEEPS4_EclB7v160006Ev, symObjAddr: 0x3F20, symBinAddr: 0x100006540, symSize: 0x68 }
  - { offsetInCU: 0x16FDD, offset: 0x16FDD, size: 0x8, addend: 0x0, symName: __ZNSt3__116reverse_iteratorIPNS_6vectorIdNS_9allocatorIdEEEEEC1B7v160006ES5_, symObjAddr: 0x3FF8, symBinAddr: 0x100006618, symSize: 0x34 }
  - { offsetInCU: 0x17015, offset: 0x17015, size: 0x8, addend: 0x0, symName: __ZNSt3__116allocator_traitsINS_9allocatorINS_6vectorIdNS1_IdEEEEEEE7destroyB7v160006IS4_vEEvRS5_PT_, symObjAddr: 0x4074, symBinAddr: 0x100006694, symSize: 0x2C }
  - { offsetInCU: 0x17052, offset: 0x17052, size: 0x8, addend: 0x0, symName: __ZNSt3__116reverse_iteratorIPNS_6vectorIdNS_9allocatorIdEEEEEppB7v160006Ev, symObjAddr: 0x40C4, symBinAddr: 0x1000066E4, symSize: 0x20 }
  - { offsetInCU: 0x17078, offset: 0x17078, size: 0x8, addend: 0x0, symName: __ZNKSt3__116reverse_iteratorIPNS_6vectorIdNS_9allocatorIdEEEEE4baseB7v160006Ev, symObjAddr: 0x40E4, symBinAddr: 0x100006704, symSize: 0x18 }
  - { offsetInCU: 0x1709E, offset: 0x1709E, size: 0x8, addend: 0x0, symName: __ZNSt3__19allocatorINS_6vectorIdNS0_IdEEEEE7destroyB7v160006EPS3_, symObjAddr: 0x40FC, symBinAddr: 0x10000671C, symSize: 0x28 }
  - { offsetInCU: 0x170D7, offset: 0x170D7, size: 0x8, addend: 0x0, symName: __ZNSt3__119__to_address_helperINS_16reverse_iteratorIPNS_6vectorIdNS_9allocatorIdEEEEEEvE6__callB7v160006ERKS7_, symObjAddr: 0x4124, symBinAddr: 0x100006744, symSize: 0x38 }
  - { offsetInCU: 0x170FA, offset: 0x170FA, size: 0x8, addend: 0x0, symName: __ZNKSt3__116reverse_iteratorIPNS_6vectorIdNS_9allocatorIdEEEEEptB7v160006Ev, symObjAddr: 0x415C, symBinAddr: 0x10000677C, symSize: 0x24 }
  - { offsetInCU: 0x17120, offset: 0x17120, size: 0x8, addend: 0x0, symName: __ZNKSt3__116reverse_iteratorIPNS_6vectorIdNS_9allocatorIdEEEEEdeB7v160006Ev, symObjAddr: 0x4180, symBinAddr: 0x1000067A0, symSize: 0x28 }
  - { offsetInCU: 0x17154, offset: 0x17154, size: 0x8, addend: 0x0, symName: __ZNSt3__116reverse_iteratorIPNS_6vectorIdNS_9allocatorIdEEEEEC2B7v160006ES5_, symObjAddr: 0x41A8, symBinAddr: 0x1000067C8, symSize: 0x28 }
  - { offsetInCU: 0x1718C, offset: 0x1718C, size: 0x8, addend: 0x0, symName: __ZNSt3__117__compressed_pairIPNS_6vectorIdNS_9allocatorIdEEEENS2_IS4_EEE6secondB7v160006Ev, symObjAddr: 0x41D0, symBinAddr: 0x1000067F0, symSize: 0x24 }
  - { offsetInCU: 0x171B2, offset: 0x171B2, size: 0x8, addend: 0x0, symName: __ZNSt3__122__compressed_pair_elemINS_9allocatorINS_6vectorIdNS1_IdEEEEEELi1ELb1EE5__getB7v160006Ev, symObjAddr: 0x41F4, symBinAddr: 0x100006814, symSize: 0x14 }
  - { offsetInCU: 0x171D8, offset: 0x171D8, size: 0x8, addend: 0x0, symName: __ZNSt3__16vectorINS0_IdNS_9allocatorIdEEEENS1_IS3_EEE21_ConstructTransactionD2B7v160006Ev, symObjAddr: 0x4208, symBinAddr: 0x100006828, symSize: 0x20 }
  - { offsetInCU: 0x17202, offset: 0x17202, size: 0x8, addend: 0x0, symName: __ZNSt3__16vectorINS0_IdNS_9allocatorIdEEEENS1_IS3_EEE27__invalidate_iterators_pastB7v160006EPS3_, symObjAddr: 0x4228, symBinAddr: 0x100006848, symSize: 0x14 }
  - { offsetInCU: 0x17239, offset: 0x17239, size: 0x8, addend: 0x0, symName: __ZNSt3__16vectorINS0_IdNS_9allocatorIdEEEENS1_IS3_EEE22__base_destruct_at_endB7v160006EPS3_, symObjAddr: 0x423C, symBinAddr: 0x10000685C, symSize: 0x8C }
  - { offsetInCU: 0x1727D, offset: 0x1727D, size: 0x8, addend: 0x0, symName: __ZNKSt3__16vectorINS0_IdNS_9allocatorIdEEEENS1_IS3_EEE17__annotate_shrinkB7v160006Em, symObjAddr: 0x42C8, symBinAddr: 0x1000068E8, symSize: 0xD0 }
  - { offsetInCU: 0x172B2, offset: 0x172B2, size: 0x8, addend: 0x0, symName: __ZNKSt3__16vectorINS0_IdNS_9allocatorIdEEEENS1_IS3_EEE31__annotate_contiguous_containerB7v160006EPKvS7_S7_S7_, symObjAddr: 0x4398, symBinAddr: 0x1000069B8, symSize: 0x20 }
  - { offsetInCU: 0x17304, offset: 0x17304, size: 0x8, addend: 0x0, symName: __ZNKSt3__16vectorINS0_IdNS_9allocatorIdEEEENS1_IS3_EEE4dataB7v160006Ev, symObjAddr: 0x43B8, symBinAddr: 0x1000069D8, symSize: 0x28 }
  - { offsetInCU: 0x1732A, offset: 0x1732A, size: 0x8, addend: 0x0, symName: __ZNSt3__16vectorINS0_IdNS_9allocatorIdEEEENS1_IS3_EEE5clearB7v160006Ev, symObjAddr: 0x43E0, symBinAddr: 0x100006A00, symSize: 0x54 }
  - { offsetInCU: 0x1735F, offset: 0x1735F, size: 0x8, addend: 0x0, symName: __ZNSt3__116allocator_traitsINS_9allocatorINS_6vectorIdNS1_IdEEEEEEE10deallocateB7v160006ERS5_PS4_m, symObjAddr: 0x4434, symBinAddr: 0x100006A54, symSize: 0x34 }
  - { offsetInCU: 0x173A1, offset: 0x173A1, size: 0x8, addend: 0x0, symName: __ZNSt3__16vectorINS0_IdNS_9allocatorIdEEEENS1_IS3_EEE9__end_capB7v160006Ev, symObjAddr: 0x4468, symBinAddr: 0x100006A88, symSize: 0x28 }
  - { offsetInCU: 0x173C7, offset: 0x173C7, size: 0x8, addend: 0x0, symName: __ZNSt3__16vectorINS0_IdNS_9allocatorIdEEEENS1_IS3_EEE7__clearB7v160006Ev, symObjAddr: 0x4490, symBinAddr: 0x100006AB0, symSize: 0x28 }
  - { offsetInCU: 0x173ED, offset: 0x173ED, size: 0x8, addend: 0x0, symName: __ZNSt3__19allocatorINS_6vectorIdNS0_IdEEEEE10deallocateB7v160006EPS3_m, symObjAddr: 0x44B8, symBinAddr: 0x100006AD8, symSize: 0x44 }
  - { offsetInCU: 0x1742F, offset: 0x1742F, size: 0x8, addend: 0x0, symName: __ZNSt3__117__compressed_pairIPNS_6vectorIdNS_9allocatorIdEEEENS2_IS4_EEE5firstB7v160006Ev, symObjAddr: 0x4624, symBinAddr: 0x100006C44, symSize: 0x24 }
  - { offsetInCU: 0x17455, offset: 0x17455, size: 0x8, addend: 0x0, symName: __ZNSt3__122__compressed_pair_elemIPNS_6vectorIdNS_9allocatorIdEEEELi0ELb0EE5__getB7v160006Ev, symObjAddr: 0x4648, symBinAddr: 0x100006C68, symSize: 0x14 }
  - { offsetInCU: 0x1747B, offset: 0x1747B, size: 0x8, addend: 0x0, symName: __ZNKSt3__16vectorINS0_IdNS_9allocatorIdEEEENS1_IS3_EEE8max_sizeEv, symObjAddr: 0x465C, symBinAddr: 0x100006C7C, symSize: 0x60 }
  - { offsetInCU: 0x174A3, offset: 0x174A3, size: 0x8, addend: 0x0, symName: __ZNKSt3__16vectorINS0_IdNS_9allocatorIdEEEENS1_IS3_EEE20__throw_length_errorB7v160006Ev, symObjAddr: 0x46BC, symBinAddr: 0x100006CDC, symSize: 0x1C }
  - { offsetInCU: 0x174C9, offset: 0x174C9, size: 0x8, addend: 0x0, symName: __ZNKSt3__16vectorINS0_IdNS_9allocatorIdEEEENS1_IS3_EEE14__annotate_newB7v160006Em, symObjAddr: 0x4718, symBinAddr: 0x100006D38, symSize: 0xC8 }
  - { offsetInCU: 0x17508, offset: 0x17508, size: 0x8, addend: 0x0, symName: __ZNSt3__116allocator_traitsINS_9allocatorINS_6vectorIdNS1_IdEEEEEEE8max_sizeB7v160006IS5_vEEmRKS5_, symObjAddr: 0x480C, symBinAddr: 0x100006E2C, symSize: 0x24 }
  - { offsetInCU: 0x17536, offset: 0x17536, size: 0x8, addend: 0x0, symName: __ZNKSt3__16vectorINS0_IdNS_9allocatorIdEEEENS1_IS3_EEE7__allocB7v160006Ev, symObjAddr: 0x4830, symBinAddr: 0x100006E50, symSize: 0x28 }
  - { offsetInCU: 0x1755C, offset: 0x1755C, size: 0x8, addend: 0x0, symName: __ZNSt3__114numeric_limitsIlE3maxB7v160006Ev, symObjAddr: 0x4858, symBinAddr: 0x100006E78, symSize: 0x14 }
  - { offsetInCU: 0x1757A, offset: 0x1757A, size: 0x8, addend: 0x0, symName: __ZNKSt3__16__lessImmEclB7v160006ERKmS3_, symObjAddr: 0x48C0, symBinAddr: 0x100006EE0, symSize: 0x34 }
  - { offsetInCU: 0x175BC, offset: 0x175BC, size: 0x8, addend: 0x0, symName: __ZNKSt3__19allocatorINS_6vectorIdNS0_IdEEEEE8max_sizeB7v160006Ev, symObjAddr: 0x48F4, symBinAddr: 0x100006F14, symSize: 0x18 }
  - { offsetInCU: 0x175E2, offset: 0x175E2, size: 0x8, addend: 0x0, symName: __ZNKSt3__117__compressed_pairIPNS_6vectorIdNS_9allocatorIdEEEENS2_IS4_EEE6secondB7v160006Ev, symObjAddr: 0x490C, symBinAddr: 0x100006F2C, symSize: 0x24 }
  - { offsetInCU: 0x17608, offset: 0x17608, size: 0x8, addend: 0x0, symName: __ZNKSt3__122__compressed_pair_elemINS_9allocatorINS_6vectorIdNS1_IdEEEEEELi1ELb1EE5__getB7v160006Ev, symObjAddr: 0x4930, symBinAddr: 0x100006F50, symSize: 0x14 }
  - { offsetInCU: 0x1762E, offset: 0x1762E, size: 0x8, addend: 0x0, symName: __ZNSt3__123__libcpp_numeric_limitsIlLb1EE3maxB7v160006Ev, symObjAddr: 0x4944, symBinAddr: 0x100006F64, symSize: 0x8 }
  - { offsetInCU: 0x17642, offset: 0x17642, size: 0x8, addend: 0x0, symName: __ZNSt12length_errorC1B7v160006EPKc, symObjAddr: 0x49B0, symBinAddr: 0x100006FD0, symSize: 0x34 }
  - { offsetInCU: 0x1767A, offset: 0x1767A, size: 0x8, addend: 0x0, symName: __ZNSt12length_errorC2B7v160006EPKc, symObjAddr: 0x49E4, symBinAddr: 0x100007004, symSize: 0x4C }
  - { offsetInCU: 0x176B2, offset: 0x176B2, size: 0x8, addend: 0x0, symName: __ZNSt3__19allocatorINS_6vectorIdNS0_IdEEEEE8allocateB7v160006Em, symObjAddr: 0x4A30, symBinAddr: 0x100007050, symSize: 0x5C }
  - { offsetInCU: 0x176E6, offset: 0x176E6, size: 0x8, addend: 0x0, symName: __ZNSt3__16vectorINS0_INS0_IdNS_9allocatorIdEEEENS1_IS3_EEEENS1_IS5_EEE19__copy_assign_allocB7v160006ERKS7_, symObjAddr: 0x4BF0, symBinAddr: 0x100007210, symSize: 0x2C }
  - { offsetInCU: 0x1771B, offset: 0x1771B, size: 0x8, addend: 0x0, symName: __ZNSt3__16vectorINS0_INS0_IdNS_9allocatorIdEEEENS1_IS3_EEEENS1_IS5_EEE6assignIPS5_Li0EEEvT_SA_, symObjAddr: 0x4C1C, symBinAddr: 0x10000723C, symSize: 0x17C }
  - { offsetInCU: 0x177BA, offset: 0x177BA, size: 0x8, addend: 0x0, symName: __ZNSt3__16vectorINS0_INS0_IdNS_9allocatorIdEEEENS1_IS3_EEEENS1_IS5_EEE19__copy_assign_allocB7v160006ERKS7_NS_17integral_constantIbLb0EEE, symObjAddr: 0x4D98, symBinAddr: 0x1000073B8, symSize: 0x14 }
  - { offsetInCU: 0x177F6, offset: 0x177F6, size: 0x8, addend: 0x0, symName: __ZNKSt3__16vectorINS0_INS0_IdNS_9allocatorIdEEEENS1_IS3_EEEENS1_IS5_EEE8capacityB7v160006Ev, symObjAddr: 0x4DD8, symBinAddr: 0x1000073F8, symSize: 0x40 }
  - { offsetInCU: 0x1781C, offset: 0x1781C, size: 0x8, addend: 0x0, symName: __ZNKSt3__16vectorINS0_INS0_IdNS_9allocatorIdEEEENS1_IS3_EEEENS1_IS5_EEE4sizeB7v160006Ev, symObjAddr: 0x4E18, symBinAddr: 0x100007438, symSize: 0x28 }
  - { offsetInCU: 0x17842, offset: 0x17842, size: 0x8, addend: 0x0, symName: __ZNSt3__16vectorINS0_INS0_IdNS_9allocatorIdEEEENS1_IS3_EEEENS1_IS5_EEE18__construct_at_endIPS5_Li0EEEvT_SA_m, symObjAddr: 0x4ED0, symBinAddr: 0x1000074F0, symSize: 0x8C }
  - { offsetInCU: 0x178B5, offset: 0x178B5, size: 0x8, addend: 0x0, symName: __ZNSt3__16vectorINS0_INS0_IdNS_9allocatorIdEEEENS1_IS3_EEEENS1_IS5_EEE17__destruct_at_endB7v160006EPS5_, symObjAddr: 0x4F5C, symBinAddr: 0x10000757C, symSize: 0x60 }
  - { offsetInCU: 0x178F9, offset: 0x178F9, size: 0x8, addend: 0x0, symName: __ZNSt3__16vectorINS0_INS0_IdNS_9allocatorIdEEEENS1_IS3_EEEENS1_IS5_EEE13__vdeallocateEv, symObjAddr: 0x4FBC, symBinAddr: 0x1000075DC, symSize: 0x8C }
  - { offsetInCU: 0x17921, offset: 0x17921, size: 0x8, addend: 0x0, symName: __ZNSt3__16vectorINS0_INS0_IdNS_9allocatorIdEEEENS1_IS3_EEEENS1_IS5_EEE11__vallocateB7v160006Em, symObjAddr: 0x5048, symBinAddr: 0x100007668, symSize: 0xB4 }
  - { offsetInCU: 0x17965, offset: 0x17965, size: 0x8, addend: 0x0, symName: __ZNKSt3__16vectorINS0_INS0_IdNS_9allocatorIdEEEENS1_IS3_EEEENS1_IS5_EEE11__recommendB7v160006Em, symObjAddr: 0x50FC, symBinAddr: 0x10000771C, symSize: 0xB4 }
  - { offsetInCU: 0x179BA, offset: 0x179BA, size: 0x8, addend: 0x0, symName: __ZNKSt3__16vectorINS0_INS0_IdNS_9allocatorIdEEEENS1_IS3_EEEENS1_IS5_EEE9__end_capB7v160006Ev, symObjAddr: 0x51E8, symBinAddr: 0x100007808, symSize: 0x28 }
  - { offsetInCU: 0x179E0, offset: 0x179E0, size: 0x8, addend: 0x0, symName: __ZNKSt3__117__compressed_pairIPNS_6vectorINS1_IdNS_9allocatorIdEEEENS2_IS4_EEEENS2_IS6_EEE5firstB7v160006Ev, symObjAddr: 0x5210, symBinAddr: 0x100007830, symSize: 0x24 }
  - { offsetInCU: 0x17A06, offset: 0x17A06, size: 0x8, addend: 0x0, symName: __ZNKSt3__122__compressed_pair_elemIPNS_6vectorINS1_IdNS_9allocatorIdEEEENS2_IS4_EEEELi0ELb0EE5__getB7v160006Ev, symObjAddr: 0x5234, symBinAddr: 0x100007854, symSize: 0x14 }
  - { offsetInCU: 0x17A45, offset: 0x17A45, size: 0x8, addend: 0x0, symName: __ZNKSt3__111__copy_loopINS_17_ClassicAlgPolicyEEclB7v160006IPNS_6vectorINS4_IdNS_9allocatorIdEEEENS5_IS7_EEEESA_SA_EENS_4pairIT_T1_EESC_T0_SD_, symObjAddr: 0x5414, symBinAddr: 0x100007A34, symSize: 0x88 }
  - { offsetInCU: 0x17AB0, offset: 0x17AB0, size: 0x8, addend: 0x0, symName: __ZNSt3__118__unwrap_iter_implIPNS_6vectorINS1_IdNS_9allocatorIdEEEENS2_IS4_EEEELb1EE8__unwrapB7v160006ES7_, symObjAddr: 0x5560, symBinAddr: 0x100007B80, symSize: 0x24 }
  - { offsetInCU: 0x17AD8, offset: 0x17AD8, size: 0x8, addend: 0x0, symName: __ZNSt3__14pairIPNS_6vectorINS1_IdNS_9allocatorIdEEEENS2_IS4_EEEES7_EC1B7v160006IS7_S7_LPv0EEEOT_OT0_, symObjAddr: 0x5598, symBinAddr: 0x100007BB8, symSize: 0x3C }
  - { offsetInCU: 0x17B36, offset: 0x17B36, size: 0x8, addend: 0x0, symName: __ZNSt3__14pairIPNS_6vectorINS1_IdNS_9allocatorIdEEEENS2_IS4_EEEES7_EC2B7v160006IS7_S7_LPv0EEEOT_OT0_, symObjAddr: 0x55D4, symBinAddr: 0x100007BF4, symSize: 0x34 }
  - { offsetInCU: 0x17B94, offset: 0x17B94, size: 0x8, addend: 0x0, symName: __ZNSt3__118__unwrap_iter_implIPNS_6vectorINS1_IdNS_9allocatorIdEEEENS2_IS4_EEEELb1EE8__rewrapB7v160006ES7_S7_, symObjAddr: 0x5608, symBinAddr: 0x100007C28, symSize: 0x58 }
  - { offsetInCU: 0x17BDE, offset: 0x17BDE, size: 0x8, addend: 0x0, symName: __ZNSt3__16vectorINS0_INS0_IdNS_9allocatorIdEEEENS1_IS3_EEEENS1_IS5_EEE21_ConstructTransactionC1B7v160006ERS7_m, symObjAddr: 0x5660, symBinAddr: 0x100007C80, symSize: 0x3C }
  - { offsetInCU: 0x17C26, offset: 0x17C26, size: 0x8, addend: 0x0, symName: __ZNSt3__16vectorINS0_INS0_IdNS_9allocatorIdEEEENS1_IS3_EEEENS1_IS5_EEE7__allocB7v160006Ev, symObjAddr: 0x5790, symBinAddr: 0x100007DB0, symSize: 0x28 }
  - { offsetInCU: 0x17C4C, offset: 0x17C4C, size: 0x8, addend: 0x0, symName: __ZNSt3__16vectorINS0_INS0_IdNS_9allocatorIdEEEENS1_IS3_EEEENS1_IS5_EEE21_ConstructTransactionD1B7v160006Ev, symObjAddr: 0x57B8, symBinAddr: 0x100007DD8, symSize: 0x2C }
  - { offsetInCU: 0x17C76, offset: 0x17C76, size: 0x8, addend: 0x0, symName: __ZNSt3__16vectorINS0_INS0_IdNS_9allocatorIdEEEENS1_IS3_EEEENS1_IS5_EEE21_ConstructTransactionC2B7v160006ERS7_m, symObjAddr: 0x57E4, symBinAddr: 0x100007E04, symSize: 0x4C }
  - { offsetInCU: 0x17CBE, offset: 0x17CBE, size: 0x8, addend: 0x0, symName: __ZNSt3__129_AllocatorDestroyRangeReverseINS_9allocatorINS_6vectorINS2_IdNS1_IdEEEENS1_IS4_EEEEEEPS6_EC1B7v160006ERS7_RS8_SB_, symObjAddr: 0x587C, symBinAddr: 0x100007E9C, symSize: 0x44 }
  - { offsetInCU: 0x17D15, offset: 0x17D15, size: 0x8, addend: 0x0, symName: __ZNSt3__116allocator_traitsINS_9allocatorINS_6vectorINS2_IdNS1_IdEEEENS1_IS4_EEEEEEE9constructB7v160006IS6_JRS6_EvEEvRS7_PT_DpOT0_, symObjAddr: 0x58C0, symBinAddr: 0x100007EE0, symSize: 0x34 }
  - { offsetInCU: 0x17D6C, offset: 0x17D6C, size: 0x8, addend: 0x0, symName: __ZNSt3__128__exception_guard_exceptionsINS_29_AllocatorDestroyRangeReverseINS_9allocatorINS_6vectorINS3_IdNS2_IdEEEENS2_IS5_EEEEEEPS7_EEE10__completeB7v160006Ev, symObjAddr: 0x58F4, symBinAddr: 0x100007F14, symSize: 0x1C }
  - { offsetInCU: 0x17D92, offset: 0x17D92, size: 0x8, addend: 0x0, symName: __ZNSt3__128__exception_guard_exceptionsINS_29_AllocatorDestroyRangeReverseINS_9allocatorINS_6vectorINS3_IdNS2_IdEEEENS2_IS5_EEEEEEPS7_EEED1B7v160006Ev, symObjAddr: 0x5910, symBinAddr: 0x100007F30, symSize: 0x2C }
  - { offsetInCU: 0x17DBC, offset: 0x17DBC, size: 0x8, addend: 0x0, symName: __ZNSt3__128__exception_guard_exceptionsINS_29_AllocatorDestroyRangeReverseINS_9allocatorINS_6vectorINS3_IdNS2_IdEEEENS2_IS5_EEEEEEPS7_EEEC1B7v160006ESA_, symObjAddr: 0x593C, symBinAddr: 0x100007F5C, symSize: 0x34 }
  - { offsetInCU: 0x17DF5, offset: 0x17DF5, size: 0x8, addend: 0x0, symName: __ZNSt3__128__exception_guard_exceptionsINS_29_AllocatorDestroyRangeReverseINS_9allocatorINS_6vectorINS3_IdNS2_IdEEEENS2_IS5_EEEEEEPS7_EEEC2B7v160006ESA_, symObjAddr: 0x5970, symBinAddr: 0x100007F90, symSize: 0x30 }
  - { offsetInCU: 0x17E2E, offset: 0x17E2E, size: 0x8, addend: 0x0, symName: __ZNSt3__129_AllocatorDestroyRangeReverseINS_9allocatorINS_6vectorINS2_IdNS1_IdEEEENS1_IS4_EEEEEEPS6_EC2B7v160006ERS7_RS8_SB_, symObjAddr: 0x59A0, symBinAddr: 0x100007FC0, symSize: 0x38 }
  - { offsetInCU: 0x17E85, offset: 0x17E85, size: 0x8, addend: 0x0, symName: __ZNSt3__19allocatorINS_6vectorINS1_IdNS0_IdEEEENS0_IS3_EEEEE9constructB7v160006IS5_JRS5_EEEvPT_DpOT0_, symObjAddr: 0x59D8, symBinAddr: 0x100007FF8, symSize: 0x30 }
  - { offsetInCU: 0x17EDB, offset: 0x17EDB, size: 0x8, addend: 0x0, symName: __ZNSt3__16vectorINS0_IdNS_9allocatorIdEEEENS1_IS3_EEEC1ERKS5_, symObjAddr: 0x5A08, symBinAddr: 0x100008028, symSize: 0x34 }
  - { offsetInCU: 0x17F16, offset: 0x17F16, size: 0x8, addend: 0x0, symName: __ZNSt3__16vectorINS0_IdNS_9allocatorIdEEEENS1_IS3_EEEC2ERKS5_, symObjAddr: 0x5A3C, symBinAddr: 0x10000805C, symSize: 0x114 }
  - { offsetInCU: 0x17F75, offset: 0x17F75, size: 0x8, addend: 0x0, symName: __ZNSt3__116allocator_traitsINS_9allocatorINS_6vectorIdNS1_IdEEEEEEE37select_on_container_copy_constructionB7v160006IS5_vvEES5_RKS5_, symObjAddr: 0x5B50, symBinAddr: 0x100008170, symSize: 0x10 }
  - { offsetInCU: 0x17FAE, offset: 0x17FAE, size: 0x8, addend: 0x0, symName: __ZNSt3__117__compressed_pairIPNS_6vectorIdNS_9allocatorIdEEEENS2_IS4_EEEC1B7v160006IDnS6_EEOT_OT0_, symObjAddr: 0x5B60, symBinAddr: 0x100008180, symSize: 0x3C }
  - { offsetInCU: 0x18006, offset: 0x18006, size: 0x8, addend: 0x0, symName: __ZNSt3__16vectorINS0_IdNS_9allocatorIdEEEENS1_IS3_EEE16__destroy_vectorC1ERS5_, symObjAddr: 0x5BDC, symBinAddr: 0x1000081FC, symSize: 0x34 }
  - { offsetInCU: 0x1803F, offset: 0x1803F, size: 0x8, addend: 0x0, symName: __ZNSt3__128__exception_guard_exceptionsINS_6vectorINS1_IdNS_9allocatorIdEEEENS2_IS4_EEE16__destroy_vectorEE10__completeB7v160006Ev, symObjAddr: 0x5C20, symBinAddr: 0x100008240, symSize: 0x1C }
  - { offsetInCU: 0x18065, offset: 0x18065, size: 0x8, addend: 0x0, symName: __ZNSt3__128__exception_guard_exceptionsINS_6vectorINS1_IdNS_9allocatorIdEEEENS2_IS4_EEE16__destroy_vectorEED1B7v160006Ev, symObjAddr: 0x5C3C, symBinAddr: 0x10000825C, symSize: 0x2C }
  - { offsetInCU: 0x1808F, offset: 0x1808F, size: 0x8, addend: 0x0, symName: __ZNSt3__117__compressed_pairIPNS_6vectorIdNS_9allocatorIdEEEENS2_IS4_EEEC2B7v160006IDnS6_EEOT_OT0_, symObjAddr: 0x5C68, symBinAddr: 0x100008288, symSize: 0x44 }
  - { offsetInCU: 0x180E7, offset: 0x180E7, size: 0x8, addend: 0x0, symName: __ZNSt3__122__compressed_pair_elemIPNS_6vectorIdNS_9allocatorIdEEEELi0ELb0EEC2B7v160006IDnvEEOT_, symObjAddr: 0x5CAC, symBinAddr: 0x1000082CC, symSize: 0x1C }
  - { offsetInCU: 0x18129, offset: 0x18129, size: 0x8, addend: 0x0, symName: __ZNSt3__122__compressed_pair_elemINS_9allocatorINS_6vectorIdNS1_IdEEEEEELi1ELb1EEC2B7v160006IS5_vEEOT_, symObjAddr: 0x5CC8, symBinAddr: 0x1000082E8, symSize: 0x18 }
  - { offsetInCU: 0x1816B, offset: 0x1816B, size: 0x8, addend: 0x0, symName: __ZNSt3__128__exception_guard_exceptionsINS_6vectorINS1_IdNS_9allocatorIdEEEENS2_IS4_EEE16__destroy_vectorEEC1B7v160006ES7_, symObjAddr: 0x5CE0, symBinAddr: 0x100008300, symSize: 0x34 }
  - { offsetInCU: 0x181A3, offset: 0x181A3, size: 0x8, addend: 0x0, symName: __ZNSt3__128__exception_guard_exceptionsINS_6vectorINS1_IdNS_9allocatorIdEEEENS2_IS4_EEE16__destroy_vectorEEC2B7v160006ES7_, symObjAddr: 0x5D14, symBinAddr: 0x100008334, symSize: 0x24 }
  - { offsetInCU: 0x181DB, offset: 0x181DB, size: 0x8, addend: 0x0, symName: __ZNSt3__16vectorINS0_IdNS_9allocatorIdEEEENS1_IS3_EEE16__destroy_vectorC2ERS5_, symObjAddr: 0x5D38, symBinAddr: 0x100008358, symSize: 0x20 }
  - { offsetInCU: 0x18214, offset: 0x18214, size: 0x8, addend: 0x0, symName: __ZNSt3__128__exception_guard_exceptionsINS_6vectorINS1_IdNS_9allocatorIdEEEENS2_IS4_EEE16__destroy_vectorEED2B7v160006Ev, symObjAddr: 0x5D58, symBinAddr: 0x100008378, symSize: 0x50 }
  - { offsetInCU: 0x1823E, offset: 0x1823E, size: 0x8, addend: 0x0, symName: __ZNSt3__16vectorINS0_IdNS_9allocatorIdEEEENS1_IS3_EEE16__destroy_vectorclB7v160006Ev, symObjAddr: 0x5DA8, symBinAddr: 0x1000083C8, symSize: 0x9C }
  - { offsetInCU: 0x18264, offset: 0x18264, size: 0x8, addend: 0x0, symName: __ZNKSt3__16vectorINS0_IdNS_9allocatorIdEEEENS1_IS3_EEE17__annotate_deleteB7v160006Ev, symObjAddr: 0x5E44, symBinAddr: 0x100008464, symSize: 0xD4 }
  - { offsetInCU: 0x1828A, offset: 0x1828A, size: 0x8, addend: 0x0, symName: __ZNSt3__128__exception_guard_exceptionsINS_29_AllocatorDestroyRangeReverseINS_9allocatorINS_6vectorINS3_IdNS2_IdEEEENS2_IS5_EEEEEEPS7_EEED2B7v160006Ev, symObjAddr: 0x5F28, symBinAddr: 0x100008548, symSize: 0x50 }
  - { offsetInCU: 0x182B4, offset: 0x182B4, size: 0x8, addend: 0x0, symName: __ZNKSt3__129_AllocatorDestroyRangeReverseINS_9allocatorINS_6vectorINS2_IdNS1_IdEEEENS1_IS4_EEEEEEPS6_EclB7v160006Ev, symObjAddr: 0x5F78, symBinAddr: 0x100008598, symSize: 0x68 }
  - { offsetInCU: 0x182DA, offset: 0x182DA, size: 0x8, addend: 0x0, symName: __ZNSt3__116reverse_iteratorIPNS_6vectorINS1_IdNS_9allocatorIdEEEENS2_IS4_EEEEEC1B7v160006ES7_, symObjAddr: 0x6050, symBinAddr: 0x100008670, symSize: 0x34 }
  - { offsetInCU: 0x18312, offset: 0x18312, size: 0x8, addend: 0x0, symName: __ZNSt3__116allocator_traitsINS_9allocatorINS_6vectorINS2_IdNS1_IdEEEENS1_IS4_EEEEEEE7destroyB7v160006IS6_vEEvRS7_PT_, symObjAddr: 0x60CC, symBinAddr: 0x1000086EC, symSize: 0x2C }
  - { offsetInCU: 0x1834F, offset: 0x1834F, size: 0x8, addend: 0x0, symName: __ZNSt3__116reverse_iteratorIPNS_6vectorINS1_IdNS_9allocatorIdEEEENS2_IS4_EEEEEppB7v160006Ev, symObjAddr: 0x611C, symBinAddr: 0x10000873C, symSize: 0x20 }
  - { offsetInCU: 0x18375, offset: 0x18375, size: 0x8, addend: 0x0, symName: __ZNKSt3__116reverse_iteratorIPNS_6vectorINS1_IdNS_9allocatorIdEEEENS2_IS4_EEEEE4baseB7v160006Ev, symObjAddr: 0x613C, symBinAddr: 0x10000875C, symSize: 0x18 }
  - { offsetInCU: 0x1839B, offset: 0x1839B, size: 0x8, addend: 0x0, symName: __ZNSt3__19allocatorINS_6vectorINS1_IdNS0_IdEEEENS0_IS3_EEEEE7destroyB7v160006EPS5_, symObjAddr: 0x6154, symBinAddr: 0x100008774, symSize: 0x28 }
  - { offsetInCU: 0x183D4, offset: 0x183D4, size: 0x8, addend: 0x0, symName: __ZNSt3__119__to_address_helperINS_16reverse_iteratorIPNS_6vectorINS2_IdNS_9allocatorIdEEEENS3_IS5_EEEEEEvE6__callB7v160006ERKS9_, symObjAddr: 0x617C, symBinAddr: 0x10000879C, symSize: 0x38 }
  - { offsetInCU: 0x183F7, offset: 0x183F7, size: 0x8, addend: 0x0, symName: __ZNKSt3__116reverse_iteratorIPNS_6vectorINS1_IdNS_9allocatorIdEEEENS2_IS4_EEEEEptB7v160006Ev, symObjAddr: 0x61B4, symBinAddr: 0x1000087D4, symSize: 0x24 }
  - { offsetInCU: 0x1841D, offset: 0x1841D, size: 0x8, addend: 0x0, symName: __ZNKSt3__116reverse_iteratorIPNS_6vectorINS1_IdNS_9allocatorIdEEEENS2_IS4_EEEEEdeB7v160006Ev, symObjAddr: 0x61D8, symBinAddr: 0x1000087F8, symSize: 0x28 }
  - { offsetInCU: 0x18451, offset: 0x18451, size: 0x8, addend: 0x0, symName: __ZNSt3__116reverse_iteratorIPNS_6vectorINS1_IdNS_9allocatorIdEEEENS2_IS4_EEEEEC2B7v160006ES7_, symObjAddr: 0x6200, symBinAddr: 0x100008820, symSize: 0x28 }
  - { offsetInCU: 0x18489, offset: 0x18489, size: 0x8, addend: 0x0, symName: __ZNSt3__117__compressed_pairIPNS_6vectorINS1_IdNS_9allocatorIdEEEENS2_IS4_EEEENS2_IS6_EEE6secondB7v160006Ev, symObjAddr: 0x6228, symBinAddr: 0x100008848, symSize: 0x24 }
  - { offsetInCU: 0x184AF, offset: 0x184AF, size: 0x8, addend: 0x0, symName: __ZNSt3__122__compressed_pair_elemINS_9allocatorINS_6vectorINS2_IdNS1_IdEEEENS1_IS4_EEEEEELi1ELb1EE5__getB7v160006Ev, symObjAddr: 0x624C, symBinAddr: 0x10000886C, symSize: 0x14 }
  - { offsetInCU: 0x184D5, offset: 0x184D5, size: 0x8, addend: 0x0, symName: __ZNSt3__16vectorINS0_INS0_IdNS_9allocatorIdEEEENS1_IS3_EEEENS1_IS5_EEE21_ConstructTransactionD2B7v160006Ev, symObjAddr: 0x6260, symBinAddr: 0x100008880, symSize: 0x20 }
  - { offsetInCU: 0x184FF, offset: 0x184FF, size: 0x8, addend: 0x0, symName: __ZNSt3__16vectorINS0_INS0_IdNS_9allocatorIdEEEENS1_IS3_EEEENS1_IS5_EEE27__invalidate_iterators_pastB7v160006EPS5_, symObjAddr: 0x6280, symBinAddr: 0x1000088A0, symSize: 0x14 }
  - { offsetInCU: 0x18536, offset: 0x18536, size: 0x8, addend: 0x0, symName: __ZNSt3__16vectorINS0_INS0_IdNS_9allocatorIdEEEENS1_IS3_EEEENS1_IS5_EEE22__base_destruct_at_endB7v160006EPS5_, symObjAddr: 0x6294, symBinAddr: 0x1000088B4, symSize: 0x8C }
  - { offsetInCU: 0x1857A, offset: 0x1857A, size: 0x8, addend: 0x0, symName: __ZNKSt3__16vectorINS0_INS0_IdNS_9allocatorIdEEEENS1_IS3_EEEENS1_IS5_EEE17__annotate_shrinkB7v160006Em, symObjAddr: 0x6320, symBinAddr: 0x100008940, symSize: 0xD0 }
  - { offsetInCU: 0x185AF, offset: 0x185AF, size: 0x8, addend: 0x0, symName: __ZNKSt3__16vectorINS0_INS0_IdNS_9allocatorIdEEEENS1_IS3_EEEENS1_IS5_EEE31__annotate_contiguous_containerB7v160006EPKvS9_S9_S9_, symObjAddr: 0x63F0, symBinAddr: 0x100008A10, symSize: 0x20 }
  - { offsetInCU: 0x18601, offset: 0x18601, size: 0x8, addend: 0x0, symName: __ZNKSt3__16vectorINS0_INS0_IdNS_9allocatorIdEEEENS1_IS3_EEEENS1_IS5_EEE4dataB7v160006Ev, symObjAddr: 0x6410, symBinAddr: 0x100008A30, symSize: 0x28 }
  - { offsetInCU: 0x18627, offset: 0x18627, size: 0x8, addend: 0x0, symName: __ZNSt3__16vectorINS0_INS0_IdNS_9allocatorIdEEEENS1_IS3_EEEENS1_IS5_EEE5clearB7v160006Ev, symObjAddr: 0x6438, symBinAddr: 0x100008A58, symSize: 0x54 }
  - { offsetInCU: 0x1865C, offset: 0x1865C, size: 0x8, addend: 0x0, symName: __ZNSt3__116allocator_traitsINS_9allocatorINS_6vectorINS2_IdNS1_IdEEEENS1_IS4_EEEEEEE10deallocateB7v160006ERS7_PS6_m, symObjAddr: 0x648C, symBinAddr: 0x100008AAC, symSize: 0x34 }
  - { offsetInCU: 0x1869E, offset: 0x1869E, size: 0x8, addend: 0x0, symName: __ZNSt3__16vectorINS0_INS0_IdNS_9allocatorIdEEEENS1_IS3_EEEENS1_IS5_EEE9__end_capB7v160006Ev, symObjAddr: 0x64C0, symBinAddr: 0x100008AE0, symSize: 0x28 }
  - { offsetInCU: 0x186C4, offset: 0x186C4, size: 0x8, addend: 0x0, symName: __ZNSt3__16vectorINS0_INS0_IdNS_9allocatorIdEEEENS1_IS3_EEEENS1_IS5_EEE7__clearB7v160006Ev, symObjAddr: 0x64E8, symBinAddr: 0x100008B08, symSize: 0x28 }
  - { offsetInCU: 0x186EA, offset: 0x186EA, size: 0x8, addend: 0x0, symName: __ZNSt3__19allocatorINS_6vectorINS1_IdNS0_IdEEEENS0_IS3_EEEEE10deallocateB7v160006EPS5_m, symObjAddr: 0x6510, symBinAddr: 0x100008B30, symSize: 0x44 }
  - { offsetInCU: 0x1872C, offset: 0x1872C, size: 0x8, addend: 0x0, symName: __ZNSt3__117__compressed_pairIPNS_6vectorINS1_IdNS_9allocatorIdEEEENS2_IS4_EEEENS2_IS6_EEE5firstB7v160006Ev, symObjAddr: 0x6554, symBinAddr: 0x100008B74, symSize: 0x24 }
  - { offsetInCU: 0x18752, offset: 0x18752, size: 0x8, addend: 0x0, symName: __ZNSt3__122__compressed_pair_elemIPNS_6vectorINS1_IdNS_9allocatorIdEEEENS2_IS4_EEEELi0ELb0EE5__getB7v160006Ev, symObjAddr: 0x6578, symBinAddr: 0x100008B98, symSize: 0x14 }
  - { offsetInCU: 0x18778, offset: 0x18778, size: 0x8, addend: 0x0, symName: __ZNKSt3__16vectorINS0_INS0_IdNS_9allocatorIdEEEENS1_IS3_EEEENS1_IS5_EEE8max_sizeEv, symObjAddr: 0x658C, symBinAddr: 0x100008BAC, symSize: 0x60 }
  - { offsetInCU: 0x187A0, offset: 0x187A0, size: 0x8, addend: 0x0, symName: __ZNKSt3__16vectorINS0_INS0_IdNS_9allocatorIdEEEENS1_IS3_EEEENS1_IS5_EEE20__throw_length_errorB7v160006Ev, symObjAddr: 0x65EC, symBinAddr: 0x100008C0C, symSize: 0x1C }
  - { offsetInCU: 0x187C6, offset: 0x187C6, size: 0x8, addend: 0x0, symName: __ZNKSt3__16vectorINS0_INS0_IdNS_9allocatorIdEEEENS1_IS3_EEEENS1_IS5_EEE14__annotate_newB7v160006Em, symObjAddr: 0x6648, symBinAddr: 0x100008C68, symSize: 0xC8 }
  - { offsetInCU: 0x18805, offset: 0x18805, size: 0x8, addend: 0x0, symName: __ZNSt3__116allocator_traitsINS_9allocatorINS_6vectorINS2_IdNS1_IdEEEENS1_IS4_EEEEEEE8max_sizeB7v160006IS7_vEEmRKS7_, symObjAddr: 0x6710, symBinAddr: 0x100008D30, symSize: 0x24 }
  - { offsetInCU: 0x18833, offset: 0x18833, size: 0x8, addend: 0x0, symName: __ZNKSt3__16vectorINS0_INS0_IdNS_9allocatorIdEEEENS1_IS3_EEEENS1_IS5_EEE7__allocB7v160006Ev, symObjAddr: 0x6734, symBinAddr: 0x100008D54, symSize: 0x28 }
  - { offsetInCU: 0x18859, offset: 0x18859, size: 0x8, addend: 0x0, symName: __ZNKSt3__19allocatorINS_6vectorINS1_IdNS0_IdEEEENS0_IS3_EEEEE8max_sizeB7v160006Ev, symObjAddr: 0x675C, symBinAddr: 0x100008D7C, symSize: 0x18 }
  - { offsetInCU: 0x1887F, offset: 0x1887F, size: 0x8, addend: 0x0, symName: __ZNKSt3__117__compressed_pairIPNS_6vectorINS1_IdNS_9allocatorIdEEEENS2_IS4_EEEENS2_IS6_EEE6secondB7v160006Ev, symObjAddr: 0x6774, symBinAddr: 0x100008D94, symSize: 0x24 }
  - { offsetInCU: 0x188A5, offset: 0x188A5, size: 0x8, addend: 0x0, symName: __ZNKSt3__122__compressed_pair_elemINS_9allocatorINS_6vectorINS2_IdNS1_IdEEEENS1_IS4_EEEEEELi1ELb1EE5__getB7v160006Ev, symObjAddr: 0x6798, symBinAddr: 0x100008DB8, symSize: 0x14 }
  - { offsetInCU: 0x188CB, offset: 0x188CB, size: 0x8, addend: 0x0, symName: __ZNSt3__19allocatorINS_6vectorINS1_IdNS0_IdEEEENS0_IS3_EEEEE8allocateB7v160006Em, symObjAddr: 0x67AC, symBinAddr: 0x100008DCC, symSize: 0x5C }
  - { offsetInCU: 0x188FF, offset: 0x188FF, size: 0x8, addend: 0x0, symName: __ZNKSt3__111__wrap_iterIPmE4baseB7v160006Ev, symObjAddr: 0x6850, symBinAddr: 0x100008E70, symSize: 0x18 }
  - { offsetInCU: 0x18925, offset: 0x18925, size: 0x8, addend: 0x0, symName: __ZN5modelD2Ev, symObjAddr: 0x6868, symBinAddr: 0x100008E88, symSize: 0x50 }
  - { offsetInCU: 0x18951, offset: 0x18951, size: 0x8, addend: 0x0, symName: __ZN9dataPointC2ERKS_, symObjAddr: 0x68B8, symBinAddr: 0x100008ED8, symSize: 0x70 }
  - { offsetInCU: 0x18986, offset: 0x18986, size: 0x8, addend: 0x0, symName: __ZN9dataPointD2Ev, symObjAddr: 0x6928, symBinAddr: 0x100008F48, symSize: 0x38 }
  - { offsetInCU: 0x189B2, offset: 0x189B2, size: 0x8, addend: 0x0, symName: __ZNSt3__16vectorI9dataPointNS_9allocatorIS1_EEEC2B7v160006Ev, symObjAddr: 0x6960, symBinAddr: 0x100008F80, symSize: 0x58 }
  - { offsetInCU: 0x189E1, offset: 0x189E1, size: 0x8, addend: 0x0, symName: __ZNSt3__117__compressed_pairIP9dataPointNS_9allocatorIS1_EEEC1B7v160006IDnNS_18__default_init_tagEEEOT_OT0_, symObjAddr: 0x69B8, symBinAddr: 0x100008FD8, symSize: 0x3C }
  - { offsetInCU: 0x18A39, offset: 0x18A39, size: 0x8, addend: 0x0, symName: __ZNSt3__117__compressed_pairIP9dataPointNS_9allocatorIS1_EEEC2B7v160006IDnNS_18__default_init_tagEEEOT_OT0_, symObjAddr: 0x6A04, symBinAddr: 0x100009024, symSize: 0x40 }
  - { offsetInCU: 0x18A91, offset: 0x18A91, size: 0x8, addend: 0x0, symName: __ZNSt3__122__compressed_pair_elemIP9dataPointLi0ELb0EEC2B7v160006IDnvEEOT_, symObjAddr: 0x6A44, symBinAddr: 0x100009064, symSize: 0x1C }
  - { offsetInCU: 0x18AD3, offset: 0x18AD3, size: 0x8, addend: 0x0, symName: __ZNSt3__122__compressed_pair_elemINS_9allocatorI9dataPointEELi1ELb1EEC2B7v160006ENS_18__default_init_tagE, symObjAddr: 0x6A60, symBinAddr: 0x100009080, symSize: 0x2C }
  - { offsetInCU: 0x18B07, offset: 0x18B07, size: 0x8, addend: 0x0, symName: __ZNSt3__19allocatorI9dataPointEC2B7v160006Ev, symObjAddr: 0x6A8C, symBinAddr: 0x1000090AC, symSize: 0x2C }
  - { offsetInCU: 0x18B31, offset: 0x18B31, size: 0x8, addend: 0x0, symName: __ZNSt3__116__non_trivial_ifILb1ENS_9allocatorI9dataPointEEEC2B7v160006Ev, symObjAddr: 0x6AB8, symBinAddr: 0x1000090D8, symSize: 0x14 }
  - { offsetInCU: 0x18B5B, offset: 0x18B5B, size: 0x8, addend: 0x0, symName: __ZNSt3__16vectorImNS_9allocatorImEEEC2B7v160006Ev, symObjAddr: 0x6ACC, symBinAddr: 0x1000090EC, symSize: 0x58 }
  - { offsetInCU: 0x18B85, offset: 0x18B85, size: 0x8, addend: 0x0, symName: __ZNSt3__117__compressed_pairIPmNS_9allocatorImEEEC1B7v160006IDnNS_18__default_init_tagEEEOT_OT0_, symObjAddr: 0x6B24, symBinAddr: 0x100009144, symSize: 0x3C }
  - { offsetInCU: 0x18BDD, offset: 0x18BDD, size: 0x8, addend: 0x0, symName: __ZNSt3__117__compressed_pairIPmNS_9allocatorImEEEC2B7v160006IDnNS_18__default_init_tagEEEOT_OT0_, symObjAddr: 0x6B70, symBinAddr: 0x100009190, symSize: 0x40 }
  - { offsetInCU: 0x18C35, offset: 0x18C35, size: 0x8, addend: 0x0, symName: __ZNSt3__122__compressed_pair_elemIPmLi0ELb0EEC2B7v160006IDnvEEOT_, symObjAddr: 0x6BB0, symBinAddr: 0x1000091D0, symSize: 0x1C }
  - { offsetInCU: 0x18C77, offset: 0x18C77, size: 0x8, addend: 0x0, symName: __ZNSt3__122__compressed_pair_elemINS_9allocatorImEELi1ELb1EEC2B7v160006ENS_18__default_init_tagE, symObjAddr: 0x6BCC, symBinAddr: 0x1000091EC, symSize: 0x2C }
  - { offsetInCU: 0x18CAB, offset: 0x18CAB, size: 0x8, addend: 0x0, symName: __ZNSt3__19allocatorImEC2B7v160006Ev, symObjAddr: 0x6BF8, symBinAddr: 0x100009218, symSize: 0x2C }
  - { offsetInCU: 0x18CD5, offset: 0x18CD5, size: 0x8, addend: 0x0, symName: __ZNSt3__116__non_trivial_ifILb1ENS_9allocatorImEEEC2B7v160006Ev, symObjAddr: 0x6C24, symBinAddr: 0x100009244, symSize: 0x14 }
  - { offsetInCU: 0x18CFF, offset: 0x18CFF, size: 0x8, addend: 0x0, symName: __ZNSt3__16vectorINS0_IdNS_9allocatorIdEEEENS1_IS3_EEEC2B7v160006Ev, symObjAddr: 0x6C38, symBinAddr: 0x100009258, symSize: 0x54 }
  - { offsetInCU: 0x18D29, offset: 0x18D29, size: 0x8, addend: 0x0, symName: __ZNSt3__117__compressed_pairIPNS_6vectorIdNS_9allocatorIdEEEENS2_IS4_EEEC1B7v160006IDnNS_18__default_init_tagEEEOT_OT0_, symObjAddr: 0x6C8C, symBinAddr: 0x1000092AC, symSize: 0x3C }
  - { offsetInCU: 0x18D81, offset: 0x18D81, size: 0x8, addend: 0x0, symName: __ZNSt3__117__compressed_pairIPNS_6vectorIdNS_9allocatorIdEEEENS2_IS4_EEEC2B7v160006IDnNS_18__default_init_tagEEEOT_OT0_, symObjAddr: 0x6CC8, symBinAddr: 0x1000092E8, symSize: 0x40 }
  - { offsetInCU: 0x18DD9, offset: 0x18DD9, size: 0x8, addend: 0x0, symName: __ZNSt3__122__compressed_pair_elemINS_9allocatorINS_6vectorIdNS1_IdEEEEEELi1ELb1EEC2B7v160006ENS_18__default_init_tagE, symObjAddr: 0x6D08, symBinAddr: 0x100009328, symSize: 0x2C }
  - { offsetInCU: 0x18E0D, offset: 0x18E0D, size: 0x8, addend: 0x0, symName: __ZNSt3__19allocatorINS_6vectorIdNS0_IdEEEEEC2B7v160006Ev, symObjAddr: 0x6D34, symBinAddr: 0x100009354, symSize: 0x2C }
  - { offsetInCU: 0x18E37, offset: 0x18E37, size: 0x8, addend: 0x0, symName: __ZNSt3__116__non_trivial_ifILb1ENS_9allocatorINS_6vectorIdNS1_IdEEEEEEEC2B7v160006Ev, symObjAddr: 0x6D60, symBinAddr: 0x100009380, symSize: 0x14 }
  - { offsetInCU: 0x18E61, offset: 0x18E61, size: 0x8, addend: 0x0, symName: __ZNSt3__16vectorINS0_INS0_IdNS_9allocatorIdEEEENS1_IS3_EEEENS1_IS5_EEEC2B7v160006Ev, symObjAddr: 0x6D74, symBinAddr: 0x100009394, symSize: 0x58 }
  - { offsetInCU: 0x18E8B, offset: 0x18E8B, size: 0x8, addend: 0x0, symName: __ZNSt3__117__compressed_pairIPNS_6vectorINS1_IdNS_9allocatorIdEEEENS2_IS4_EEEENS2_IS6_EEEC1B7v160006IDnNS_18__default_init_tagEEEOT_OT0_, symObjAddr: 0x6DCC, symBinAddr: 0x1000093EC, symSize: 0x3C }
  - { offsetInCU: 0x18EE3, offset: 0x18EE3, size: 0x8, addend: 0x0, symName: __ZNSt3__117__compressed_pairIPNS_6vectorINS1_IdNS_9allocatorIdEEEENS2_IS4_EEEENS2_IS6_EEEC2B7v160006IDnNS_18__default_init_tagEEEOT_OT0_, symObjAddr: 0x6E18, symBinAddr: 0x100009438, symSize: 0x40 }
  - { offsetInCU: 0x18F3B, offset: 0x18F3B, size: 0x8, addend: 0x0, symName: __ZNSt3__122__compressed_pair_elemIPNS_6vectorINS1_IdNS_9allocatorIdEEEENS2_IS4_EEEELi0ELb0EEC2B7v160006IDnvEEOT_, symObjAddr: 0x6E58, symBinAddr: 0x100009478, symSize: 0x1C }
  - { offsetInCU: 0x18F7D, offset: 0x18F7D, size: 0x8, addend: 0x0, symName: __ZNSt3__122__compressed_pair_elemINS_9allocatorINS_6vectorINS2_IdNS1_IdEEEENS1_IS4_EEEEEELi1ELb1EEC2B7v160006ENS_18__default_init_tagE, symObjAddr: 0x6E74, symBinAddr: 0x100009494, symSize: 0x2C }
  - { offsetInCU: 0x18FB1, offset: 0x18FB1, size: 0x8, addend: 0x0, symName: __ZNSt3__19allocatorINS_6vectorINS1_IdNS0_IdEEEENS0_IS3_EEEEEC2B7v160006Ev, symObjAddr: 0x6EA0, symBinAddr: 0x1000094C0, symSize: 0x2C }
  - { offsetInCU: 0x18FDB, offset: 0x18FDB, size: 0x8, addend: 0x0, symName: __ZNSt3__116__non_trivial_ifILb1ENS_9allocatorINS_6vectorINS2_IdNS1_IdEEEENS1_IS4_EEEEEEEC2B7v160006Ev, symObjAddr: 0x6ECC, symBinAddr: 0x1000094EC, symSize: 0x14 }
  - { offsetInCU: 0x19005, offset: 0x19005, size: 0x8, addend: 0x0, symName: __ZNSt3__16vectorI9dataPointNS_9allocatorIS1_EEED2B7v160006Ev, symObjAddr: 0x6EE0, symBinAddr: 0x100009500, symSize: 0x44 }
  - { offsetInCU: 0x1902F, offset: 0x1902F, size: 0x8, addend: 0x0, symName: __ZNSt3__16vectorI9dataPointNS_9allocatorIS1_EEE16__destroy_vectorC1ERS4_, symObjAddr: 0x6F24, symBinAddr: 0x100009544, symSize: 0x34 }
  - { offsetInCU: 0x19068, offset: 0x19068, size: 0x8, addend: 0x0, symName: __ZNSt3__16vectorI9dataPointNS_9allocatorIS1_EEE16__destroy_vectorclB7v160006Ev, symObjAddr: 0x6F58, symBinAddr: 0x100009578, symSize: 0x9C }
  - { offsetInCU: 0x1908E, offset: 0x1908E, size: 0x8, addend: 0x0, symName: __ZNSt3__16vectorI9dataPointNS_9allocatorIS1_EEE16__destroy_vectorC2ERS4_, symObjAddr: 0x6FF4, symBinAddr: 0x100009614, symSize: 0x20 }
  - { offsetInCU: 0x190C7, offset: 0x190C7, size: 0x8, addend: 0x0, symName: __ZNKSt3__16vectorI9dataPointNS_9allocatorIS1_EEE17__annotate_deleteB7v160006Ev, symObjAddr: 0x7014, symBinAddr: 0x100009634, symSize: 0xD4 }
  - { offsetInCU: 0x190ED, offset: 0x190ED, size: 0x8, addend: 0x0, symName: __ZNSt3__16vectorI9dataPointNS_9allocatorIS1_EEE7__clearB7v160006Ev, symObjAddr: 0x70F8, symBinAddr: 0x100009718, symSize: 0x28 }
  - { offsetInCU: 0x19113, offset: 0x19113, size: 0x8, addend: 0x0, symName: __ZNSt3__116allocator_traitsINS_9allocatorI9dataPointEEE10deallocateB7v160006ERS3_PS2_m, symObjAddr: 0x7120, symBinAddr: 0x100009740, symSize: 0x34 }
  - { offsetInCU: 0x19155, offset: 0x19155, size: 0x8, addend: 0x0, symName: __ZNSt3__16vectorI9dataPointNS_9allocatorIS1_EEE7__allocB7v160006Ev, symObjAddr: 0x7154, symBinAddr: 0x100009774, symSize: 0x28 }
  - { offsetInCU: 0x1917B, offset: 0x1917B, size: 0x8, addend: 0x0, symName: __ZNKSt3__16vectorI9dataPointNS_9allocatorIS1_EEE8capacityB7v160006Ev, symObjAddr: 0x717C, symBinAddr: 0x10000979C, symSize: 0x40 }
  - { offsetInCU: 0x191A1, offset: 0x191A1, size: 0x8, addend: 0x0, symName: __ZNKSt3__16vectorI9dataPointNS_9allocatorIS1_EEE31__annotate_contiguous_containerB7v160006EPKvS6_S6_S6_, symObjAddr: 0x71BC, symBinAddr: 0x1000097DC, symSize: 0x20 }
  - { offsetInCU: 0x191F3, offset: 0x191F3, size: 0x8, addend: 0x0, symName: __ZNKSt3__16vectorI9dataPointNS_9allocatorIS1_EEE4dataB7v160006Ev, symObjAddr: 0x71DC, symBinAddr: 0x1000097FC, symSize: 0x28 }
  - { offsetInCU: 0x19219, offset: 0x19219, size: 0x8, addend: 0x0, symName: __ZNSt3__16vectorI9dataPointNS_9allocatorIS1_EEE22__base_destruct_at_endB7v160006EPS1_, symObjAddr: 0x7218, symBinAddr: 0x100009838, symSize: 0x8C }
  - { offsetInCU: 0x1925D, offset: 0x1925D, size: 0x8, addend: 0x0, symName: __ZNSt3__116allocator_traitsINS_9allocatorI9dataPointEEE7destroyB7v160006IS2_vEEvRS3_PT_, symObjAddr: 0x72A4, symBinAddr: 0x1000098C4, symSize: 0x2C }
  - { offsetInCU: 0x1929A, offset: 0x1929A, size: 0x8, addend: 0x0, symName: __ZNSt3__19allocatorI9dataPointE7destroyB7v160006EPS1_, symObjAddr: 0x72D0, symBinAddr: 0x1000098F0, symSize: 0x28 }
  - { offsetInCU: 0x192CE, offset: 0x192CE, size: 0x8, addend: 0x0, symName: __ZNSt3__19allocatorI9dataPointE10deallocateB7v160006EPS1_m, symObjAddr: 0x72F8, symBinAddr: 0x100009918, symSize: 0x44 }
  - { offsetInCU: 0x19310, offset: 0x19310, size: 0x8, addend: 0x0, symName: __ZNSt3__117__compressed_pairIP9dataPointNS_9allocatorIS1_EEE6secondB7v160006Ev, symObjAddr: 0x733C, symBinAddr: 0x10000995C, symSize: 0x24 }
  - { offsetInCU: 0x19336, offset: 0x19336, size: 0x8, addend: 0x0, symName: __ZNSt3__122__compressed_pair_elemINS_9allocatorI9dataPointEELi1ELb1EE5__getB7v160006Ev, symObjAddr: 0x7360, symBinAddr: 0x100009980, symSize: 0x14 }
  - { offsetInCU: 0x1935C, offset: 0x1935C, size: 0x8, addend: 0x0, symName: __ZNKSt3__16vectorI9dataPointNS_9allocatorIS1_EEE9__end_capB7v160006Ev, symObjAddr: 0x7374, symBinAddr: 0x100009994, symSize: 0x28 }
  - { offsetInCU: 0x19382, offset: 0x19382, size: 0x8, addend: 0x0, symName: __ZNKSt3__117__compressed_pairIP9dataPointNS_9allocatorIS1_EEE5firstB7v160006Ev, symObjAddr: 0x739C, symBinAddr: 0x1000099BC, symSize: 0x24 }
  - { offsetInCU: 0x193A8, offset: 0x193A8, size: 0x8, addend: 0x0, symName: __ZNKSt3__122__compressed_pair_elemIP9dataPointLi0ELb0EE5__getB7v160006Ev, symObjAddr: 0x73C0, symBinAddr: 0x1000099E0, symSize: 0x14 }
  - { offsetInCU: 0x193CE, offset: 0x193CE, size: 0x8, addend: 0x0, symName: __ZNSt3__16vectorImNS_9allocatorImEEED2B7v160006Ev, symObjAddr: 0x73D4, symBinAddr: 0x1000099F4, symSize: 0x44 }
  - { offsetInCU: 0x193F8, offset: 0x193F8, size: 0x8, addend: 0x0, symName: __ZNSt3__16vectorImNS_9allocatorImEEE16__destroy_vectorC1ERS3_, symObjAddr: 0x7418, symBinAddr: 0x100009A38, symSize: 0x34 }
  - { offsetInCU: 0x19431, offset: 0x19431, size: 0x8, addend: 0x0, symName: __ZNSt3__16vectorImNS_9allocatorImEEE16__destroy_vectorclB7v160006Ev, symObjAddr: 0x744C, symBinAddr: 0x100009A6C, symSize: 0x9C }
  - { offsetInCU: 0x19457, offset: 0x19457, size: 0x8, addend: 0x0, symName: __ZNSt3__16vectorImNS_9allocatorImEEE16__destroy_vectorC2ERS3_, symObjAddr: 0x74E8, symBinAddr: 0x100009B08, symSize: 0x20 }
  - { offsetInCU: 0x19490, offset: 0x19490, size: 0x8, addend: 0x0, symName: __ZNKSt3__16vectorImNS_9allocatorImEEE17__annotate_deleteB7v160006Ev, symObjAddr: 0x7508, symBinAddr: 0x100009B28, symSize: 0xB8 }
  - { offsetInCU: 0x194B6, offset: 0x194B6, size: 0x8, addend: 0x0, symName: __ZNSt3__16vectorImNS_9allocatorImEEE7__clearB7v160006Ev, symObjAddr: 0x75D0, symBinAddr: 0x100009BF0, symSize: 0x28 }
  - { offsetInCU: 0x194DC, offset: 0x194DC, size: 0x8, addend: 0x0, symName: __ZNSt3__116allocator_traitsINS_9allocatorImEEE10deallocateB7v160006ERS2_Pmm, symObjAddr: 0x75F8, symBinAddr: 0x100009C18, symSize: 0x34 }
  - { offsetInCU: 0x1951E, offset: 0x1951E, size: 0x8, addend: 0x0, symName: __ZNSt3__16vectorImNS_9allocatorImEEE7__allocB7v160006Ev, symObjAddr: 0x762C, symBinAddr: 0x100009C4C, symSize: 0x28 }
  - { offsetInCU: 0x19544, offset: 0x19544, size: 0x8, addend: 0x0, symName: __ZNKSt3__16vectorImNS_9allocatorImEEE8capacityB7v160006Ev, symObjAddr: 0x7654, symBinAddr: 0x100009C74, symSize: 0x40 }
  - { offsetInCU: 0x1956A, offset: 0x1956A, size: 0x8, addend: 0x0, symName: __ZNKSt3__16vectorImNS_9allocatorImEEE31__annotate_contiguous_containerB7v160006EPKvS5_S5_S5_, symObjAddr: 0x7694, symBinAddr: 0x100009CB4, symSize: 0x20 }
  - { offsetInCU: 0x195BC, offset: 0x195BC, size: 0x8, addend: 0x0, symName: __ZNKSt3__16vectorImNS_9allocatorImEEE4dataB7v160006Ev, symObjAddr: 0x76B4, symBinAddr: 0x100009CD4, symSize: 0x28 }
  - { offsetInCU: 0x195E2, offset: 0x195E2, size: 0x8, addend: 0x0, symName: __ZNSt3__16vectorImNS_9allocatorImEEE22__base_destruct_at_endB7v160006EPm, symObjAddr: 0x76F0, symBinAddr: 0x100009D10, symSize: 0x8C }
  - { offsetInCU: 0x19626, offset: 0x19626, size: 0x8, addend: 0x0, symName: __ZNSt3__116allocator_traitsINS_9allocatorImEEE7destroyB7v160006ImvEEvRS2_PT_, symObjAddr: 0x777C, symBinAddr: 0x100009D9C, symSize: 0x2C }
  - { offsetInCU: 0x19663, offset: 0x19663, size: 0x8, addend: 0x0, symName: __ZNSt3__19allocatorImE7destroyB7v160006EPm, symObjAddr: 0x77A8, symBinAddr: 0x100009DC8, symSize: 0x14 }
  - { offsetInCU: 0x19697, offset: 0x19697, size: 0x8, addend: 0x0, symName: __ZNSt3__19allocatorImE10deallocateB7v160006EPmm, symObjAddr: 0x77BC, symBinAddr: 0x100009DDC, symSize: 0x40 }
  - { offsetInCU: 0x196D9, offset: 0x196D9, size: 0x8, addend: 0x0, symName: __ZNSt3__117__compressed_pairIPmNS_9allocatorImEEE6secondB7v160006Ev, symObjAddr: 0x77FC, symBinAddr: 0x100009E1C, symSize: 0x24 }
  - { offsetInCU: 0x196FF, offset: 0x196FF, size: 0x8, addend: 0x0, symName: __ZNSt3__122__compressed_pair_elemINS_9allocatorImEELi1ELb1EE5__getB7v160006Ev, symObjAddr: 0x7820, symBinAddr: 0x100009E40, symSize: 0x14 }
  - { offsetInCU: 0x19725, offset: 0x19725, size: 0x8, addend: 0x0, symName: __ZNKSt3__16vectorImNS_9allocatorImEEE9__end_capB7v160006Ev, symObjAddr: 0x7834, symBinAddr: 0x100009E54, symSize: 0x28 }
  - { offsetInCU: 0x1974B, offset: 0x1974B, size: 0x8, addend: 0x0, symName: __ZNKSt3__117__compressed_pairIPmNS_9allocatorImEEE5firstB7v160006Ev, symObjAddr: 0x785C, symBinAddr: 0x100009E7C, symSize: 0x24 }
  - { offsetInCU: 0x19771, offset: 0x19771, size: 0x8, addend: 0x0, symName: __ZNKSt3__122__compressed_pair_elemIPmLi0ELb0EE5__getB7v160006Ev, symObjAddr: 0x7880, symBinAddr: 0x100009EA0, symSize: 0x14 }
  - { offsetInCU: 0x19797, offset: 0x19797, size: 0x8, addend: 0x0, symName: __ZNSt3__16vectorINS0_IdNS_9allocatorIdEEEENS1_IS3_EEED2B7v160006Ev, symObjAddr: 0x7894, symBinAddr: 0x100009EB4, symSize: 0x44 }
  - { offsetInCU: 0x197C1, offset: 0x197C1, size: 0x8, addend: 0x0, symName: __ZNSt3__16vectorINS0_INS0_IdNS_9allocatorIdEEEENS1_IS3_EEEENS1_IS5_EEED2B7v160006Ev, symObjAddr: 0x78D8, symBinAddr: 0x100009EF8, symSize: 0x44 }
  - { offsetInCU: 0x197EB, offset: 0x197EB, size: 0x8, addend: 0x0, symName: __ZNSt3__16vectorINS0_INS0_IdNS_9allocatorIdEEEENS1_IS3_EEEENS1_IS5_EEE16__destroy_vectorC1ERS7_, symObjAddr: 0x791C, symBinAddr: 0x100009F3C, symSize: 0x34 }
  - { offsetInCU: 0x19824, offset: 0x19824, size: 0x8, addend: 0x0, symName: __ZNSt3__16vectorINS0_INS0_IdNS_9allocatorIdEEEENS1_IS3_EEEENS1_IS5_EEE16__destroy_vectorclB7v160006Ev, symObjAddr: 0x7950, symBinAddr: 0x100009F70, symSize: 0x9C }
  - { offsetInCU: 0x1984A, offset: 0x1984A, size: 0x8, addend: 0x0, symName: __ZNSt3__16vectorINS0_INS0_IdNS_9allocatorIdEEEENS1_IS3_EEEENS1_IS5_EEE16__destroy_vectorC2ERS7_, symObjAddr: 0x79EC, symBinAddr: 0x10000A00C, symSize: 0x20 }
  - { offsetInCU: 0x19883, offset: 0x19883, size: 0x8, addend: 0x0, symName: __ZNKSt3__16vectorINS0_INS0_IdNS_9allocatorIdEEEENS1_IS3_EEEENS1_IS5_EEE17__annotate_deleteB7v160006Ev, symObjAddr: 0x7A0C, symBinAddr: 0x10000A02C, symSize: 0xD4 }
  - { offsetInCU: 0x198A9, offset: 0x198A9, size: 0x8, addend: 0x0, symName: __ZNSt3__16vectorI9dataPointNS_9allocatorIS1_EEE19__copy_assign_allocB7v160006ERKS4_, symObjAddr: 0x7AF0, symBinAddr: 0x10000A110, symSize: 0x2C }
  - { offsetInCU: 0x198DE, offset: 0x198DE, size: 0x8, addend: 0x0, symName: __ZNSt3__16vectorI9dataPointNS_9allocatorIS1_EEE6assignIPS1_Li0EEEvT_S7_, symObjAddr: 0x7B1C, symBinAddr: 0x10000A13C, symSize: 0x17C }
  - { offsetInCU: 0x1997D, offset: 0x1997D, size: 0x8, addend: 0x0, symName: __ZNSt3__16vectorI9dataPointNS_9allocatorIS1_EEE19__copy_assign_allocB7v160006ERKS4_NS_17integral_constantIbLb0EEE, symObjAddr: 0x7C98, symBinAddr: 0x10000A2B8, symSize: 0x14 }
  - { offsetInCU: 0x199B9, offset: 0x199B9, size: 0x8, addend: 0x0, symName: __ZNSt3__16vectorI9dataPointNS_9allocatorIS1_EEE18__construct_at_endIPS1_Li0EEEvT_S7_m, symObjAddr: 0x7D68, symBinAddr: 0x10000A388, symSize: 0x8C }
  - { offsetInCU: 0x19A2C, offset: 0x19A2C, size: 0x8, addend: 0x0, symName: __ZNSt3__16vectorI9dataPointNS_9allocatorIS1_EEE17__destruct_at_endB7v160006EPS1_, symObjAddr: 0x7DF4, symBinAddr: 0x10000A414, symSize: 0x60 }
  - { offsetInCU: 0x19A70, offset: 0x19A70, size: 0x8, addend: 0x0, symName: __ZNSt3__16vectorI9dataPointNS_9allocatorIS1_EEE13__vdeallocateEv, symObjAddr: 0x7E54, symBinAddr: 0x10000A474, symSize: 0x8C }
  - { offsetInCU: 0x19A98, offset: 0x19A98, size: 0x8, addend: 0x0, symName: __ZNSt3__16vectorI9dataPointNS_9allocatorIS1_EEE11__vallocateB7v160006Em, symObjAddr: 0x7EE0, symBinAddr: 0x10000A500, symSize: 0xB4 }
  - { offsetInCU: 0x19ADC, offset: 0x19ADC, size: 0x8, addend: 0x0, symName: __ZNKSt3__16vectorI9dataPointNS_9allocatorIS1_EEE11__recommendB7v160006Em, symObjAddr: 0x7F94, symBinAddr: 0x10000A5B4, symSize: 0xB4 }
  - { offsetInCU: 0x19B4A, offset: 0x19B4A, size: 0x8, addend: 0x0, symName: __ZNKSt3__111__copy_loopINS_17_ClassicAlgPolicyEEclB7v160006IP9dataPointS5_S5_EENS_4pairIT_T1_EES7_T0_S8_, symObjAddr: 0x824C, symBinAddr: 0x10000A86C, symSize: 0x88 }
  - { offsetInCU: 0x19BB5, offset: 0x19BB5, size: 0x8, addend: 0x0, symName: __ZN9dataPointaSERKS_, symObjAddr: 0x8398, symBinAddr: 0x10000A9B8, symSize: 0x48 }
  - { offsetInCU: 0x19BE6, offset: 0x19BE6, size: 0x8, addend: 0x0, symName: __ZNSt3__118__unwrap_iter_implIP9dataPointLb1EE8__unwrapB7v160006ES2_, symObjAddr: 0x83E0, symBinAddr: 0x10000AA00, symSize: 0x24 }
  - { offsetInCU: 0x19C0E, offset: 0x19C0E, size: 0x8, addend: 0x0, symName: __ZNSt3__14pairIP9dataPointS2_EC1B7v160006IS2_S2_LPv0EEEOT_OT0_, symObjAddr: 0x8404, symBinAddr: 0x10000AA24, symSize: 0x3C }
  - { offsetInCU: 0x19C6C, offset: 0x19C6C, size: 0x8, addend: 0x0, symName: __ZNSt3__14pairIP9dataPointS2_EC2B7v160006IS2_S2_LPv0EEEOT_OT0_, symObjAddr: 0x8440, symBinAddr: 0x10000AA60, symSize: 0x34 }
  - { offsetInCU: 0x19CCA, offset: 0x19CCA, size: 0x8, addend: 0x0, symName: __ZNSt3__118__unwrap_iter_implIP9dataPointLb1EE8__rewrapB7v160006ES2_S2_, symObjAddr: 0x8474, symBinAddr: 0x10000AA94, symSize: 0x58 }
  - { offsetInCU: 0x19D14, offset: 0x19D14, size: 0x8, addend: 0x0, symName: __ZNSt3__16vectorI9dataPointNS_9allocatorIS1_EEE21_ConstructTransactionC1B7v160006ERS4_m, symObjAddr: 0x84CC, symBinAddr: 0x10000AAEC, symSize: 0x3C }
  - { offsetInCU: 0x19D5C, offset: 0x19D5C, size: 0x8, addend: 0x0, symName: __ZNSt3__16vectorI9dataPointNS_9allocatorIS1_EEE21_ConstructTransactionD1B7v160006Ev, symObjAddr: 0x85FC, symBinAddr: 0x10000AC1C, symSize: 0x2C }
  - { offsetInCU: 0x19D86, offset: 0x19D86, size: 0x8, addend: 0x0, symName: __ZNSt3__16vectorI9dataPointNS_9allocatorIS1_EEE21_ConstructTransactionC2B7v160006ERS4_m, symObjAddr: 0x8628, symBinAddr: 0x10000AC48, symSize: 0x4C }
  - { offsetInCU: 0x19DCE, offset: 0x19DCE, size: 0x8, addend: 0x0, symName: __ZNSt3__129_AllocatorDestroyRangeReverseINS_9allocatorI9dataPointEEPS2_EC1B7v160006ERS3_RS4_S7_, symObjAddr: 0x86C0, symBinAddr: 0x10000ACE0, symSize: 0x44 }
  - { offsetInCU: 0x19E25, offset: 0x19E25, size: 0x8, addend: 0x0, symName: __ZNSt3__116allocator_traitsINS_9allocatorI9dataPointEEE9constructB7v160006IS2_JRS2_EvEEvRS3_PT_DpOT0_, symObjAddr: 0x8704, symBinAddr: 0x10000AD24, symSize: 0x34 }
  - { offsetInCU: 0x19E7C, offset: 0x19E7C, size: 0x8, addend: 0x0, symName: __ZNSt3__128__exception_guard_exceptionsINS_29_AllocatorDestroyRangeReverseINS_9allocatorI9dataPointEEPS3_EEE10__completeB7v160006Ev, symObjAddr: 0x8738, symBinAddr: 0x10000AD58, symSize: 0x1C }
  - { offsetInCU: 0x19EA2, offset: 0x19EA2, size: 0x8, addend: 0x0, symName: __ZNSt3__128__exception_guard_exceptionsINS_29_AllocatorDestroyRangeReverseINS_9allocatorI9dataPointEEPS3_EEED1B7v160006Ev, symObjAddr: 0x8754, symBinAddr: 0x10000AD74, symSize: 0x2C }
  - { offsetInCU: 0x19ECC, offset: 0x19ECC, size: 0x8, addend: 0x0, symName: __ZNSt3__128__exception_guard_exceptionsINS_29_AllocatorDestroyRangeReverseINS_9allocatorI9dataPointEEPS3_EEEC1B7v160006ES6_, symObjAddr: 0x8780, symBinAddr: 0x10000ADA0, symSize: 0x34 }
  - { offsetInCU: 0x19F05, offset: 0x19F05, size: 0x8, addend: 0x0, symName: __ZNSt3__128__exception_guard_exceptionsINS_29_AllocatorDestroyRangeReverseINS_9allocatorI9dataPointEEPS3_EEEC2B7v160006ES6_, symObjAddr: 0x87B4, symBinAddr: 0x10000ADD4, symSize: 0x30 }
  - { offsetInCU: 0x19F3E, offset: 0x19F3E, size: 0x8, addend: 0x0, symName: __ZNSt3__129_AllocatorDestroyRangeReverseINS_9allocatorI9dataPointEEPS2_EC2B7v160006ERS3_RS4_S7_, symObjAddr: 0x87E4, symBinAddr: 0x10000AE04, symSize: 0x38 }
  - { offsetInCU: 0x19F95, offset: 0x19F95, size: 0x8, addend: 0x0, symName: __ZNSt3__19allocatorI9dataPointE9constructB7v160006IS1_JRS1_EEEvPT_DpOT0_, symObjAddr: 0x881C, symBinAddr: 0x10000AE3C, symSize: 0x30 }
  - { offsetInCU: 0x19FEB, offset: 0x19FEB, size: 0x8, addend: 0x0, symName: __ZNSt3__128__exception_guard_exceptionsINS_29_AllocatorDestroyRangeReverseINS_9allocatorI9dataPointEEPS3_EEED2B7v160006Ev, symObjAddr: 0x884C, symBinAddr: 0x10000AE6C, symSize: 0x50 }
  - { offsetInCU: 0x1A015, offset: 0x1A015, size: 0x8, addend: 0x0, symName: __ZNKSt3__129_AllocatorDestroyRangeReverseINS_9allocatorI9dataPointEEPS2_EclB7v160006Ev, symObjAddr: 0x889C, symBinAddr: 0x10000AEBC, symSize: 0x68 }
  - { offsetInCU: 0x1A03B, offset: 0x1A03B, size: 0x8, addend: 0x0, symName: __ZNSt3__116reverse_iteratorIP9dataPointEC1B7v160006ES2_, symObjAddr: 0x8974, symBinAddr: 0x10000AF94, symSize: 0x34 }
  - { offsetInCU: 0x1A073, offset: 0x1A073, size: 0x8, addend: 0x0, symName: __ZNSt3__116reverse_iteratorIP9dataPointEppB7v160006Ev, symObjAddr: 0x8A14, symBinAddr: 0x10000B034, symSize: 0x20 }
  - { offsetInCU: 0x1A099, offset: 0x1A099, size: 0x8, addend: 0x0, symName: __ZNKSt3__116reverse_iteratorIP9dataPointE4baseB7v160006Ev, symObjAddr: 0x8A34, symBinAddr: 0x10000B054, symSize: 0x18 }
  - { offsetInCU: 0x1A0C4, offset: 0x1A0C4, size: 0x8, addend: 0x0, symName: __ZNSt3__119__to_address_helperINS_16reverse_iteratorIP9dataPointEEvE6__callB7v160006ERKS4_, symObjAddr: 0x8A4C, symBinAddr: 0x10000B06C, symSize: 0x38 }
  - { offsetInCU: 0x1A0E7, offset: 0x1A0E7, size: 0x8, addend: 0x0, symName: __ZNKSt3__116reverse_iteratorIP9dataPointEptB7v160006Ev, symObjAddr: 0x8A84, symBinAddr: 0x10000B0A4, symSize: 0x24 }
  - { offsetInCU: 0x1A10D, offset: 0x1A10D, size: 0x8, addend: 0x0, symName: __ZNKSt3__116reverse_iteratorIP9dataPointEdeB7v160006Ev, symObjAddr: 0x8AA8, symBinAddr: 0x10000B0C8, symSize: 0x28 }
  - { offsetInCU: 0x1A141, offset: 0x1A141, size: 0x8, addend: 0x0, symName: __ZNSt3__116reverse_iteratorIP9dataPointEC2B7v160006ES2_, symObjAddr: 0x8AD0, symBinAddr: 0x10000B0F0, symSize: 0x28 }
  - { offsetInCU: 0x1A179, offset: 0x1A179, size: 0x8, addend: 0x0, symName: __ZNSt3__16vectorI9dataPointNS_9allocatorIS1_EEE21_ConstructTransactionD2B7v160006Ev, symObjAddr: 0x8AF8, symBinAddr: 0x10000B118, symSize: 0x20 }
  - { offsetInCU: 0x1A1A3, offset: 0x1A1A3, size: 0x8, addend: 0x0, symName: __ZNSt3__16vectorI9dataPointNS_9allocatorIS1_EEE27__invalidate_iterators_pastB7v160006EPS1_, symObjAddr: 0x8B18, symBinAddr: 0x10000B138, symSize: 0x14 }
  - { offsetInCU: 0x1A1DA, offset: 0x1A1DA, size: 0x8, addend: 0x0, symName: __ZNKSt3__16vectorI9dataPointNS_9allocatorIS1_EEE17__annotate_shrinkB7v160006Em, symObjAddr: 0x8B2C, symBinAddr: 0x10000B14C, symSize: 0xD0 }
  - { offsetInCU: 0x1A20F, offset: 0x1A20F, size: 0x8, addend: 0x0, symName: __ZNSt3__16vectorI9dataPointNS_9allocatorIS1_EEE5clearB7v160006Ev, symObjAddr: 0x8BFC, symBinAddr: 0x10000B21C, symSize: 0x54 }
  - { offsetInCU: 0x1A244, offset: 0x1A244, size: 0x8, addend: 0x0, symName: __ZNSt3__16vectorI9dataPointNS_9allocatorIS1_EEE9__end_capB7v160006Ev, symObjAddr: 0x8C50, symBinAddr: 0x10000B270, symSize: 0x28 }
  - { offsetInCU: 0x1A26A, offset: 0x1A26A, size: 0x8, addend: 0x0, symName: __ZNSt3__117__compressed_pairIP9dataPointNS_9allocatorIS1_EEE5firstB7v160006Ev, symObjAddr: 0x8C78, symBinAddr: 0x10000B298, symSize: 0x24 }
  - { offsetInCU: 0x1A290, offset: 0x1A290, size: 0x8, addend: 0x0, symName: __ZNSt3__122__compressed_pair_elemIP9dataPointLi0ELb0EE5__getB7v160006Ev, symObjAddr: 0x8C9C, symBinAddr: 0x10000B2BC, symSize: 0x14 }
  - { offsetInCU: 0x1A2B6, offset: 0x1A2B6, size: 0x8, addend: 0x0, symName: __ZNKSt3__16vectorI9dataPointNS_9allocatorIS1_EEE8max_sizeEv, symObjAddr: 0x8CB0, symBinAddr: 0x10000B2D0, symSize: 0x60 }
  - { offsetInCU: 0x1A2DE, offset: 0x1A2DE, size: 0x8, addend: 0x0, symName: __ZNKSt3__16vectorI9dataPointNS_9allocatorIS1_EEE20__throw_length_errorB7v160006Ev, symObjAddr: 0x8D10, symBinAddr: 0x10000B330, symSize: 0x1C }
  - { offsetInCU: 0x1A304, offset: 0x1A304, size: 0x8, addend: 0x0, symName: __ZNKSt3__16vectorI9dataPointNS_9allocatorIS1_EEE14__annotate_newB7v160006Em, symObjAddr: 0x8D6C, symBinAddr: 0x10000B38C, symSize: 0xC8 }
  - { offsetInCU: 0x1A343, offset: 0x1A343, size: 0x8, addend: 0x0, symName: __ZNSt3__116allocator_traitsINS_9allocatorI9dataPointEEE8max_sizeB7v160006IS3_vEEmRKS3_, symObjAddr: 0x8E34, symBinAddr: 0x10000B454, symSize: 0x24 }
  - { offsetInCU: 0x1A371, offset: 0x1A371, size: 0x8, addend: 0x0, symName: __ZNKSt3__16vectorI9dataPointNS_9allocatorIS1_EEE7__allocB7v160006Ev, symObjAddr: 0x8E58, symBinAddr: 0x10000B478, symSize: 0x28 }
  - { offsetInCU: 0x1A397, offset: 0x1A397, size: 0x8, addend: 0x0, symName: __ZNKSt3__19allocatorI9dataPointE8max_sizeB7v160006Ev, symObjAddr: 0x8E80, symBinAddr: 0x10000B4A0, symSize: 0x18 }
  - { offsetInCU: 0x1A3BD, offset: 0x1A3BD, size: 0x8, addend: 0x0, symName: __ZNKSt3__117__compressed_pairIP9dataPointNS_9allocatorIS1_EEE6secondB7v160006Ev, symObjAddr: 0x8E98, symBinAddr: 0x10000B4B8, symSize: 0x24 }
  - { offsetInCU: 0x1A3E3, offset: 0x1A3E3, size: 0x8, addend: 0x0, symName: __ZNKSt3__122__compressed_pair_elemINS_9allocatorI9dataPointEELi1ELb1EE5__getB7v160006Ev, symObjAddr: 0x8EBC, symBinAddr: 0x10000B4DC, symSize: 0x14 }
  - { offsetInCU: 0x1A409, offset: 0x1A409, size: 0x8, addend: 0x0, symName: __ZNSt3__19allocatorI9dataPointE8allocateB7v160006Em, symObjAddr: 0x8ED0, symBinAddr: 0x10000B4F0, symSize: 0x5C }
  - { offsetInCU: 0x1A43D, offset: 0x1A43D, size: 0x8, addend: 0x0, symName: __ZNSt3__16vectorImNS_9allocatorImEEE19__copy_assign_allocB7v160006ERKS3_, symObjAddr: 0x8F2C, symBinAddr: 0x10000B54C, symSize: 0x2C }
  - { offsetInCU: 0x1A472, offset: 0x1A472, size: 0x8, addend: 0x0, symName: __ZNSt3__16vectorImNS_9allocatorImEEE6assignIPmLi0EEEvT_S6_, symObjAddr: 0x8F58, symBinAddr: 0x10000B578, symSize: 0x17C }
  - { offsetInCU: 0x1A511, offset: 0x1A511, size: 0x8, addend: 0x0, symName: __ZNSt3__16vectorImNS_9allocatorImEEE19__copy_assign_allocB7v160006ERKS3_NS_17integral_constantIbLb0EEE, symObjAddr: 0x90D4, symBinAddr: 0x10000B6F4, symSize: 0x14 }
  - { offsetInCU: 0x1A54D, offset: 0x1A54D, size: 0x8, addend: 0x0, symName: __ZNSt3__16vectorImNS_9allocatorImEEE18__construct_at_endIPmLi0EEEvT_S6_m, symObjAddr: 0x91A4, symBinAddr: 0x10000B7C4, symSize: 0x8C }
  - { offsetInCU: 0x1A5C0, offset: 0x1A5C0, size: 0x8, addend: 0x0, symName: __ZNSt3__16vectorImNS_9allocatorImEEE17__destruct_at_endB7v160006EPm, symObjAddr: 0x9230, symBinAddr: 0x10000B850, symSize: 0x60 }
  - { offsetInCU: 0x1A604, offset: 0x1A604, size: 0x8, addend: 0x0, symName: __ZNSt3__16vectorImNS_9allocatorImEEE13__vdeallocateEv, symObjAddr: 0x9290, symBinAddr: 0x10000B8B0, symSize: 0x8C }
  - { offsetInCU: 0x1A62C, offset: 0x1A62C, size: 0x8, addend: 0x0, symName: __ZNSt3__16vectorImNS_9allocatorImEEE11__vallocateB7v160006Em, symObjAddr: 0x931C, symBinAddr: 0x10000B93C, symSize: 0xAC }
  - { offsetInCU: 0x1A670, offset: 0x1A670, size: 0x8, addend: 0x0, symName: __ZNKSt3__16vectorImNS_9allocatorImEEE11__recommendB7v160006Em, symObjAddr: 0x93C8, symBinAddr: 0x10000B9E8, symSize: 0xB4 }
  - { offsetInCU: 0x1A6E8, offset: 0x1A6E8, size: 0x8, addend: 0x0, symName: __ZNKSt3__114__copy_trivialclB7v160006ImmLi0EEENS_4pairIPT_PT0_EES4_S4_S6_, symObjAddr: 0x9678, symBinAddr: 0x10000BC98, symSize: 0x48 }
  - { offsetInCU: 0x1A755, offset: 0x1A755, size: 0x8, addend: 0x0, symName: __ZNSt3__14pairIPmS1_EC1B7v160006IRS1_S1_LPv0EEEOT_OT0_, symObjAddr: 0x9840, symBinAddr: 0x10000BE60, symSize: 0x3C }
  - { offsetInCU: 0x1A7B3, offset: 0x1A7B3, size: 0x8, addend: 0x0, symName: __ZNSt3__14pairIPmS1_EC2B7v160006IRS1_S1_LPv0EEEOT_OT0_, symObjAddr: 0x987C, symBinAddr: 0x10000BE9C, symSize: 0x34 }
  - { offsetInCU: 0x1A811, offset: 0x1A811, size: 0x8, addend: 0x0, symName: __ZNSt3__118__unwrap_iter_implIPmLb1EE8__unwrapB7v160006ES1_, symObjAddr: 0x98B0, symBinAddr: 0x10000BED0, symSize: 0x24 }
  - { offsetInCU: 0x1A834, offset: 0x1A834, size: 0x8, addend: 0x0, symName: __ZNSt3__14pairIPmS1_EC1B7v160006IS1_S1_LPv0EEEOT_OT0_, symObjAddr: 0x98D4, symBinAddr: 0x10000BEF4, symSize: 0x3C }
  - { offsetInCU: 0x1A892, offset: 0x1A892, size: 0x8, addend: 0x0, symName: __ZNSt3__14pairIPmS1_EC2B7v160006IS1_S1_LPv0EEEOT_OT0_, symObjAddr: 0x9910, symBinAddr: 0x10000BF30, symSize: 0x34 }
  - { offsetInCU: 0x1A8F0, offset: 0x1A8F0, size: 0x8, addend: 0x0, symName: __ZNSt3__118__unwrap_iter_implIPmLb1EE8__rewrapB7v160006ES1_S1_, symObjAddr: 0x9944, symBinAddr: 0x10000BF64, symSize: 0x50 }
  - { offsetInCU: 0x1A93A, offset: 0x1A93A, size: 0x8, addend: 0x0, symName: __ZNSt3__16vectorImNS_9allocatorImEEE21_ConstructTransactionC1B7v160006ERS3_m, symObjAddr: 0x9994, symBinAddr: 0x10000BFB4, symSize: 0x3C }
  - { offsetInCU: 0x1A982, offset: 0x1A982, size: 0x8, addend: 0x0, symName: __ZNSt3__16vectorImNS_9allocatorImEEE21_ConstructTransactionD1B7v160006Ev, symObjAddr: 0x9AC4, symBinAddr: 0x10000C0E4, symSize: 0x2C }
  - { offsetInCU: 0x1A9AC, offset: 0x1A9AC, size: 0x8, addend: 0x0, symName: __ZNSt3__16vectorImNS_9allocatorImEEE21_ConstructTransactionC2B7v160006ERS3_m, symObjAddr: 0x9AF0, symBinAddr: 0x10000C110, symSize: 0x44 }
  - { offsetInCU: 0x1A9F4, offset: 0x1A9F4, size: 0x8, addend: 0x0, symName: __ZNSt3__129_AllocatorDestroyRangeReverseINS_9allocatorImEEPmEC1B7v160006ERS2_RS3_S6_, symObjAddr: 0x9B80, symBinAddr: 0x10000C1A0, symSize: 0x44 }
  - { offsetInCU: 0x1AA4B, offset: 0x1AA4B, size: 0x8, addend: 0x0, symName: __ZNSt3__116allocator_traitsINS_9allocatorImEEE9constructB7v160006ImJRmEvEEvRS2_PT_DpOT0_, symObjAddr: 0x9BC4, symBinAddr: 0x10000C1E4, symSize: 0x34 }
  - { offsetInCU: 0x1AAA2, offset: 0x1AAA2, size: 0x8, addend: 0x0, symName: __ZNSt3__128__exception_guard_exceptionsINS_29_AllocatorDestroyRangeReverseINS_9allocatorImEEPmEEE10__completeB7v160006Ev, symObjAddr: 0x9BF8, symBinAddr: 0x10000C218, symSize: 0x1C }
  - { offsetInCU: 0x1AAC8, offset: 0x1AAC8, size: 0x8, addend: 0x0, symName: __ZNSt3__128__exception_guard_exceptionsINS_29_AllocatorDestroyRangeReverseINS_9allocatorImEEPmEEED1B7v160006Ev, symObjAddr: 0x9C14, symBinAddr: 0x10000C234, symSize: 0x2C }
  - { offsetInCU: 0x1AAF2, offset: 0x1AAF2, size: 0x8, addend: 0x0, symName: __ZNSt3__128__exception_guard_exceptionsINS_29_AllocatorDestroyRangeReverseINS_9allocatorImEEPmEEEC1B7v160006ES5_, symObjAddr: 0x9C40, symBinAddr: 0x10000C260, symSize: 0x34 }
  - { offsetInCU: 0x1AB2B, offset: 0x1AB2B, size: 0x8, addend: 0x0, symName: __ZNSt3__128__exception_guard_exceptionsINS_29_AllocatorDestroyRangeReverseINS_9allocatorImEEPmEEEC2B7v160006ES5_, symObjAddr: 0x9C74, symBinAddr: 0x10000C294, symSize: 0x30 }
  - { offsetInCU: 0x1AB64, offset: 0x1AB64, size: 0x8, addend: 0x0, symName: __ZNSt3__129_AllocatorDestroyRangeReverseINS_9allocatorImEEPmEC2B7v160006ERS2_RS3_S6_, symObjAddr: 0x9CA4, symBinAddr: 0x10000C2C4, symSize: 0x38 }
  - { offsetInCU: 0x1ABBB, offset: 0x1ABBB, size: 0x8, addend: 0x0, symName: __ZNSt3__19allocatorImE9constructB7v160006ImJRmEEEvPT_DpOT0_, symObjAddr: 0x9CDC, symBinAddr: 0x10000C2FC, symSize: 0x28 }
  - { offsetInCU: 0x1AC11, offset: 0x1AC11, size: 0x8, addend: 0x0, symName: __ZNSt3__128__exception_guard_exceptionsINS_29_AllocatorDestroyRangeReverseINS_9allocatorImEEPmEEED2B7v160006Ev, symObjAddr: 0x9D04, symBinAddr: 0x10000C324, symSize: 0x50 }
  - { offsetInCU: 0x1AC3B, offset: 0x1AC3B, size: 0x8, addend: 0x0, symName: __ZNKSt3__129_AllocatorDestroyRangeReverseINS_9allocatorImEEPmEclB7v160006Ev, symObjAddr: 0x9D54, symBinAddr: 0x10000C374, symSize: 0x68 }
  - { offsetInCU: 0x1AC61, offset: 0x1AC61, size: 0x8, addend: 0x0, symName: __ZNSt3__116reverse_iteratorIPmEC1B7v160006ES1_, symObjAddr: 0x9E2C, symBinAddr: 0x10000C44C, symSize: 0x34 }
  - { offsetInCU: 0x1AC99, offset: 0x1AC99, size: 0x8, addend: 0x0, symName: __ZNSt3__116reverse_iteratorIPmEppB7v160006Ev, symObjAddr: 0x9ECC, symBinAddr: 0x10000C4EC, symSize: 0x20 }
  - { offsetInCU: 0x1ACBF, offset: 0x1ACBF, size: 0x8, addend: 0x0, symName: __ZNKSt3__116reverse_iteratorIPmE4baseB7v160006Ev, symObjAddr: 0x9EEC, symBinAddr: 0x10000C50C, symSize: 0x18 }
  - { offsetInCU: 0x1ACEA, offset: 0x1ACEA, size: 0x8, addend: 0x0, symName: __ZNSt3__119__to_address_helperINS_16reverse_iteratorIPmEEvE6__callB7v160006ERKS3_, symObjAddr: 0x9F04, symBinAddr: 0x10000C524, symSize: 0x38 }
  - { offsetInCU: 0x1AD0D, offset: 0x1AD0D, size: 0x8, addend: 0x0, symName: __ZNKSt3__116reverse_iteratorIPmEptB7v160006Ev, symObjAddr: 0x9F3C, symBinAddr: 0x10000C55C, symSize: 0x24 }
  - { offsetInCU: 0x1AD33, offset: 0x1AD33, size: 0x8, addend: 0x0, symName: __ZNKSt3__116reverse_iteratorIPmEdeB7v160006Ev, symObjAddr: 0x9F60, symBinAddr: 0x10000C580, symSize: 0x28 }
  - { offsetInCU: 0x1AD67, offset: 0x1AD67, size: 0x8, addend: 0x0, symName: __ZNSt3__116reverse_iteratorIPmEC2B7v160006ES1_, symObjAddr: 0x9F88, symBinAddr: 0x10000C5A8, symSize: 0x28 }
  - { offsetInCU: 0x1AD9F, offset: 0x1AD9F, size: 0x8, addend: 0x0, symName: __ZNSt3__16vectorImNS_9allocatorImEEE21_ConstructTransactionD2B7v160006Ev, symObjAddr: 0x9FB0, symBinAddr: 0x10000C5D0, symSize: 0x20 }
  - { offsetInCU: 0x1ADC9, offset: 0x1ADC9, size: 0x8, addend: 0x0, symName: __ZNSt3__16vectorImNS_9allocatorImEEE27__invalidate_iterators_pastB7v160006EPm, symObjAddr: 0x9FD0, symBinAddr: 0x10000C5F0, symSize: 0x14 }
  - { offsetInCU: 0x1AE00, offset: 0x1AE00, size: 0x8, addend: 0x0, symName: __ZNKSt3__16vectorImNS_9allocatorImEEE17__annotate_shrinkB7v160006Em, symObjAddr: 0x9FE4, symBinAddr: 0x10000C604, symSize: 0xB4 }
  - { offsetInCU: 0x1AE35, offset: 0x1AE35, size: 0x8, addend: 0x0, symName: __ZNSt3__16vectorImNS_9allocatorImEEE5clearB7v160006Ev, symObjAddr: 0xA098, symBinAddr: 0x10000C6B8, symSize: 0x54 }
  - { offsetInCU: 0x1AE6A, offset: 0x1AE6A, size: 0x8, addend: 0x0, symName: __ZNSt3__16vectorImNS_9allocatorImEEE9__end_capB7v160006Ev, symObjAddr: 0xA0EC, symBinAddr: 0x10000C70C, symSize: 0x28 }
  - { offsetInCU: 0x1AE90, offset: 0x1AE90, size: 0x8, addend: 0x0, symName: __ZNSt3__117__compressed_pairIPmNS_9allocatorImEEE5firstB7v160006Ev, symObjAddr: 0xA114, symBinAddr: 0x10000C734, symSize: 0x24 }
  - { offsetInCU: 0x1AEB6, offset: 0x1AEB6, size: 0x8, addend: 0x0, symName: __ZNSt3__122__compressed_pair_elemIPmLi0ELb0EE5__getB7v160006Ev, symObjAddr: 0xA138, symBinAddr: 0x10000C758, symSize: 0x14 }
  - { offsetInCU: 0x1AEDC, offset: 0x1AEDC, size: 0x8, addend: 0x0, symName: __ZNKSt3__16vectorImNS_9allocatorImEEE8max_sizeEv, symObjAddr: 0xA14C, symBinAddr: 0x10000C76C, symSize: 0x60 }
  - { offsetInCU: 0x1AF04, offset: 0x1AF04, size: 0x8, addend: 0x0, symName: __ZNKSt3__16vectorImNS_9allocatorImEEE20__throw_length_errorB7v160006Ev, symObjAddr: 0xA1AC, symBinAddr: 0x10000C7CC, symSize: 0x1C }
  - { offsetInCU: 0x1AF2A, offset: 0x1AF2A, size: 0x8, addend: 0x0, symName: __ZNKSt3__16vectorImNS_9allocatorImEEE14__annotate_newB7v160006Em, symObjAddr: 0xA208, symBinAddr: 0x10000C828, symSize: 0xAC }
  - { offsetInCU: 0x1AF69, offset: 0x1AF69, size: 0x8, addend: 0x0, symName: __ZNSt3__116allocator_traitsINS_9allocatorImEEE8max_sizeB7v160006IS2_vEEmRKS2_, symObjAddr: 0xA2B4, symBinAddr: 0x10000C8D4, symSize: 0x24 }
  - { offsetInCU: 0x1AF97, offset: 0x1AF97, size: 0x8, addend: 0x0, symName: __ZNKSt3__16vectorImNS_9allocatorImEEE7__allocB7v160006Ev, symObjAddr: 0xA2D8, symBinAddr: 0x10000C8F8, symSize: 0x28 }
  - { offsetInCU: 0x1AFBD, offset: 0x1AFBD, size: 0x8, addend: 0x0, symName: __ZNKSt3__19allocatorImE8max_sizeB7v160006Ev, symObjAddr: 0xA300, symBinAddr: 0x10000C920, symSize: 0x14 }
  - { offsetInCU: 0x1AFE3, offset: 0x1AFE3, size: 0x8, addend: 0x0, symName: __ZNKSt3__117__compressed_pairIPmNS_9allocatorImEEE6secondB7v160006Ev, symObjAddr: 0xA314, symBinAddr: 0x10000C934, symSize: 0x24 }
  - { offsetInCU: 0x1B009, offset: 0x1B009, size: 0x8, addend: 0x0, symName: __ZNKSt3__122__compressed_pair_elemINS_9allocatorImEELi1ELb1EE5__getB7v160006Ev, symObjAddr: 0xA338, symBinAddr: 0x10000C958, symSize: 0x14 }
  - { offsetInCU: 0x1B02F, offset: 0x1B02F, size: 0x8, addend: 0x0, symName: __ZNSt3__19allocatorImE8allocateB7v160006Em, symObjAddr: 0xA34C, symBinAddr: 0x10000C96C, symSize: 0x58 }
  - { offsetInCU: 0x1B063, offset: 0x1B063, size: 0x8, addend: 0x0, symName: __ZNKSt3__16vectorImNS_9allocatorImEEE11__make_iterB7v160006EPKm, symObjAddr: 0xA3A4, symBinAddr: 0x10000C9C4, symSize: 0x34 }
  - { offsetInCU: 0x1B098, offset: 0x1B098, size: 0x8, addend: 0x0, symName: __ZNSt3__111__wrap_iterIPKmEC1B7v160006EPKvS2_, symObjAddr: 0xA3D8, symBinAddr: 0x10000C9F8, symSize: 0x3C }
  - { offsetInCU: 0x1B0DE, offset: 0x1B0DE, size: 0x8, addend: 0x0, symName: __ZNSt3__111__wrap_iterIPKmEC2B7v160006EPKvS2_, symObjAddr: 0xA414, symBinAddr: 0x10000CA34, symSize: 0x24 }
  - { offsetInCU: 0x1B124, offset: 0x1B124, size: 0x8, addend: 0x0, symName: __ZNSt3__16vectorINS0_INS0_IdNS_9allocatorIdEEEENS1_IS3_EEEENS1_IS5_EEEC2Em, symObjAddr: 0xA438, symBinAddr: 0x10000CA58, symSize: 0xDC }
  - { offsetInCU: 0x1B174, offset: 0x1B174, size: 0x8, addend: 0x0, symName: __ZNSt3__16vectorINS0_INS0_IdNS_9allocatorIdEEEENS1_IS3_EEEENS1_IS5_EEE18__construct_at_endEm, symObjAddr: 0xA554, symBinAddr: 0x10000CB74, symSize: 0xC8 }
  - { offsetInCU: 0x1B1E6, offset: 0x1B1E6, size: 0x8, addend: 0x0, symName: __ZNSt3__128__exception_guard_exceptionsINS_6vectorINS1_INS1_IdNS_9allocatorIdEEEENS2_IS4_EEEENS2_IS6_EEE16__destroy_vectorEE10__completeB7v160006Ev, symObjAddr: 0xA61C, symBinAddr: 0x10000CC3C, symSize: 0x1C }
  - { offsetInCU: 0x1B20C, offset: 0x1B20C, size: 0x8, addend: 0x0, symName: __ZNSt3__128__exception_guard_exceptionsINS_6vectorINS1_INS1_IdNS_9allocatorIdEEEENS2_IS4_EEEENS2_IS6_EEE16__destroy_vectorEED1B7v160006Ev, symObjAddr: 0xA638, symBinAddr: 0x10000CC58, symSize: 0x2C }
  - { offsetInCU: 0x1B236, offset: 0x1B236, size: 0x8, addend: 0x0, symName: __ZNSt3__128__exception_guard_exceptionsINS_6vectorINS1_INS1_IdNS_9allocatorIdEEEENS2_IS4_EEEENS2_IS6_EEE16__destroy_vectorEEC1B7v160006ES9_, symObjAddr: 0xA664, symBinAddr: 0x10000CC84, symSize: 0x34 }
  - { offsetInCU: 0x1B26E, offset: 0x1B26E, size: 0x8, addend: 0x0, symName: __ZNSt3__128__exception_guard_exceptionsINS_6vectorINS1_INS1_IdNS_9allocatorIdEEEENS2_IS4_EEEENS2_IS6_EEE16__destroy_vectorEEC2B7v160006ES9_, symObjAddr: 0xA698, symBinAddr: 0x10000CCB8, symSize: 0x24 }
  - { offsetInCU: 0x1B2A6, offset: 0x1B2A6, size: 0x8, addend: 0x0, symName: __ZNSt3__116allocator_traitsINS_9allocatorINS_6vectorINS2_IdNS1_IdEEEENS1_IS4_EEEEEEE9constructB7v160006IS6_JEvEEvRS7_PT_DpOT0_, symObjAddr: 0xA6BC, symBinAddr: 0x10000CCDC, symSize: 0x2C }
  - { offsetInCU: 0x1B2E8, offset: 0x1B2E8, size: 0x8, addend: 0x0, symName: __ZNSt3__19allocatorINS_6vectorINS1_IdNS0_IdEEEENS0_IS3_EEEEE9constructB7v160006IS5_JEEEvPT_DpOT0_, symObjAddr: 0xA6E8, symBinAddr: 0x10000CD08, symSize: 0x28 }
  - { offsetInCU: 0x1B32A, offset: 0x1B32A, size: 0x8, addend: 0x0, symName: __ZNSt3__128__exception_guard_exceptionsINS_6vectorINS1_INS1_IdNS_9allocatorIdEEEENS2_IS4_EEEENS2_IS6_EEE16__destroy_vectorEED2B7v160006Ev, symObjAddr: 0xA710, symBinAddr: 0x10000CD30, symSize: 0x50 }
  - { offsetInCU: 0x1B354, offset: 0x1B354, size: 0x8, addend: 0x0, symName: __ZNSt3__16vectorINS0_INS0_IdNS_9allocatorIdEEEENS1_IS3_EEEENS1_IS5_EEE13__move_assignERS7_NS_17integral_constantIbLb1EEE, symObjAddr: 0xA760, symBinAddr: 0x10000CD80, symSize: 0xAC }
  - { offsetInCU: 0x1B396, offset: 0x1B396, size: 0x8, addend: 0x0, symName: __ZNSt3__16vectorINS0_INS0_IdNS_9allocatorIdEEEENS1_IS3_EEEENS1_IS5_EEE19__move_assign_allocB7v160006ERS7_, symObjAddr: 0xA80C, symBinAddr: 0x10000CE2C, symSize: 0x2C }
  - { offsetInCU: 0x1B3CB, offset: 0x1B3CB, size: 0x8, addend: 0x0, symName: __ZNSt3__16vectorINS0_INS0_IdNS_9allocatorIdEEEENS1_IS3_EEEENS1_IS5_EEE19__move_assign_allocB7v160006ERS7_NS_17integral_constantIbLb1EEE, symObjAddr: 0xA84C, symBinAddr: 0x10000CE6C, symSize: 0x38 }
  - { offsetInCU: 0x1B40B, offset: 0x1B40B, size: 0x8, addend: 0x0, symName: __ZNSt3__16vectorINS0_INS0_IdNS_9allocatorIdEEEENS1_IS3_EEEENS1_IS5_EEE11__make_iterB7v160006EPS5_, symObjAddr: 0xA884, symBinAddr: 0x10000CEA4, symSize: 0x34 }
  - { offsetInCU: 0x1B440, offset: 0x1B440, size: 0x8, addend: 0x0, symName: __ZNSt3__111__wrap_iterIPNS_6vectorINS1_IdNS_9allocatorIdEEEENS2_IS4_EEEEEC1B7v160006EPKvS7_, symObjAddr: 0xA8B8, symBinAddr: 0x10000CED8, symSize: 0x3C }
  - { offsetInCU: 0x1B486, offset: 0x1B486, size: 0x8, addend: 0x0, symName: __ZNSt3__111__wrap_iterIPNS_6vectorINS1_IdNS_9allocatorIdEEEENS2_IS4_EEEEEC2B7v160006EPKvS7_, symObjAddr: 0xA8F4, symBinAddr: 0x10000CF14, symSize: 0x24 }
  - { offsetInCU: 0x1B4CC, offset: 0x1B4CC, size: 0x8, addend: 0x0, symName: __ZNSt3__16vectorINS0_IdNS_9allocatorIdEEEENS1_IS3_EEEC2Em, symObjAddr: 0xA918, symBinAddr: 0x10000CF38, symSize: 0xDC }
  - { offsetInCU: 0x1B51C, offset: 0x1B51C, size: 0x8, addend: 0x0, symName: __ZNSt3__16vectorINS0_IdNS_9allocatorIdEEEENS1_IS3_EEE18__construct_at_endEm, symObjAddr: 0xA9F4, symBinAddr: 0x10000D014, symSize: 0xC8 }
  - { offsetInCU: 0x1B58E, offset: 0x1B58E, size: 0x8, addend: 0x0, symName: __ZNSt3__116allocator_traitsINS_9allocatorINS_6vectorIdNS1_IdEEEEEEE9constructB7v160006IS4_JEvEEvRS5_PT_DpOT0_, symObjAddr: 0xAABC, symBinAddr: 0x10000D0DC, symSize: 0x2C }
  - { offsetInCU: 0x1B5D0, offset: 0x1B5D0, size: 0x8, addend: 0x0, symName: __ZNSt3__19allocatorINS_6vectorIdNS0_IdEEEEE9constructB7v160006IS3_JEEEvPT_DpOT0_, symObjAddr: 0xAAE8, symBinAddr: 0x10000D108, symSize: 0x28 }
  - { offsetInCU: 0x1B612, offset: 0x1B612, size: 0x8, addend: 0x0, symName: __ZNSt3__16vectorINS0_IdNS_9allocatorIdEEEENS1_IS3_EEE13__move_assignERS5_NS_17integral_constantIbLb1EEE, symObjAddr: 0xAB10, symBinAddr: 0x10000D130, symSize: 0xAC }
  - { offsetInCU: 0x1B654, offset: 0x1B654, size: 0x8, addend: 0x0, symName: __ZNSt3__16vectorINS0_IdNS_9allocatorIdEEEENS1_IS3_EEE19__move_assign_allocB7v160006ERS5_, symObjAddr: 0xABBC, symBinAddr: 0x10000D1DC, symSize: 0x2C }
  - { offsetInCU: 0x1B689, offset: 0x1B689, size: 0x8, addend: 0x0, symName: __ZNSt3__16vectorINS0_IdNS_9allocatorIdEEEENS1_IS3_EEE19__move_assign_allocB7v160006ERS5_NS_17integral_constantIbLb1EEE, symObjAddr: 0xABFC, symBinAddr: 0x10000D21C, symSize: 0x38 }
  - { offsetInCU: 0x1B6C9, offset: 0x1B6C9, size: 0x8, addend: 0x0, symName: __ZNSt3__16vectorINS0_IdNS_9allocatorIdEEEENS1_IS3_EEE11__make_iterB7v160006EPS3_, symObjAddr: 0xAC34, symBinAddr: 0x10000D254, symSize: 0x34 }
  - { offsetInCU: 0x1B6FE, offset: 0x1B6FE, size: 0x8, addend: 0x0, symName: __ZNSt3__111__wrap_iterIPNS_6vectorIdNS_9allocatorIdEEEEEC1B7v160006EPKvS5_, symObjAddr: 0xAC68, symBinAddr: 0x10000D288, symSize: 0x3C }
  - { offsetInCU: 0x1B744, offset: 0x1B744, size: 0x8, addend: 0x0, symName: __ZNSt3__111__wrap_iterIPNS_6vectorIdNS_9allocatorIdEEEEEC2B7v160006EPKvS5_, symObjAddr: 0xACA4, symBinAddr: 0x10000D2C4, symSize: 0x24 }
  - { offsetInCU: 0x1B78A, offset: 0x1B78A, size: 0x8, addend: 0x0, symName: __ZNSt3__16vectorIdNS_9allocatorIdEEEC2Em, symObjAddr: 0xACC8, symBinAddr: 0x10000D2E8, symSize: 0xE0 }
  - { offsetInCU: 0x1B7DA, offset: 0x1B7DA, size: 0x8, addend: 0x0, symName: __ZNSt3__117__compressed_pairIPdNS_9allocatorIdEEEC1B7v160006IDnNS_18__default_init_tagEEEOT_OT0_, symObjAddr: 0xADA8, symBinAddr: 0x10000D3C8, symSize: 0x3C }
  - { offsetInCU: 0x1B832, offset: 0x1B832, size: 0x8, addend: 0x0, symName: __ZNSt3__16vectorIdNS_9allocatorIdEEE16__destroy_vectorC1ERS3_, symObjAddr: 0xAE24, symBinAddr: 0x10000D444, symSize: 0x34 }
  - { offsetInCU: 0x1B86B, offset: 0x1B86B, size: 0x8, addend: 0x0, symName: __ZNSt3__16vectorIdNS_9allocatorIdEEE11__vallocateB7v160006Em, symObjAddr: 0xAE68, symBinAddr: 0x10000D488, symSize: 0xAC }
  - { offsetInCU: 0x1B8AF, offset: 0x1B8AF, size: 0x8, addend: 0x0, symName: __ZNSt3__16vectorIdNS_9allocatorIdEEE18__construct_at_endEm, symObjAddr: 0xAF14, symBinAddr: 0x10000D534, symSize: 0xC8 }
  - { offsetInCU: 0x1B921, offset: 0x1B921, size: 0x8, addend: 0x0, symName: __ZNSt3__128__exception_guard_exceptionsINS_6vectorIdNS_9allocatorIdEEE16__destroy_vectorEE10__completeB7v160006Ev, symObjAddr: 0xAFDC, symBinAddr: 0x10000D5FC, symSize: 0x1C }
  - { offsetInCU: 0x1B947, offset: 0x1B947, size: 0x8, addend: 0x0, symName: __ZNSt3__128__exception_guard_exceptionsINS_6vectorIdNS_9allocatorIdEEE16__destroy_vectorEED1B7v160006Ev, symObjAddr: 0xAFF8, symBinAddr: 0x10000D618, symSize: 0x2C }
  - { offsetInCU: 0x1B971, offset: 0x1B971, size: 0x8, addend: 0x0, symName: __ZNSt3__117__compressed_pairIPdNS_9allocatorIdEEEC2B7v160006IDnNS_18__default_init_tagEEEOT_OT0_, symObjAddr: 0xB024, symBinAddr: 0x10000D644, symSize: 0x40 }
  - { offsetInCU: 0x1B9C9, offset: 0x1B9C9, size: 0x8, addend: 0x0, symName: __ZNSt3__122__compressed_pair_elemIPdLi0ELb0EEC2B7v160006IDnvEEOT_, symObjAddr: 0xB064, symBinAddr: 0x10000D684, symSize: 0x1C }
  - { offsetInCU: 0x1BA0B, offset: 0x1BA0B, size: 0x8, addend: 0x0, symName: __ZNSt3__122__compressed_pair_elemINS_9allocatorIdEELi1ELb1EEC2B7v160006ENS_18__default_init_tagE, symObjAddr: 0xB080, symBinAddr: 0x10000D6A0, symSize: 0x2C }
  - { offsetInCU: 0x1BA3F, offset: 0x1BA3F, size: 0x8, addend: 0x0, symName: __ZNSt3__19allocatorIdEC2B7v160006Ev, symObjAddr: 0xB0AC, symBinAddr: 0x10000D6CC, symSize: 0x2C }
  - { offsetInCU: 0x1BA69, offset: 0x1BA69, size: 0x8, addend: 0x0, symName: __ZNSt3__116__non_trivial_ifILb1ENS_9allocatorIdEEEC2B7v160006Ev, symObjAddr: 0xB0D8, symBinAddr: 0x10000D6F8, symSize: 0x14 }
  - { offsetInCU: 0x1BA93, offset: 0x1BA93, size: 0x8, addend: 0x0, symName: __ZNSt3__128__exception_guard_exceptionsINS_6vectorIdNS_9allocatorIdEEE16__destroy_vectorEEC1B7v160006ES5_, symObjAddr: 0xB0EC, symBinAddr: 0x10000D70C, symSize: 0x34 }
  - { offsetInCU: 0x1BACB, offset: 0x1BACB, size: 0x8, addend: 0x0, symName: __ZNSt3__128__exception_guard_exceptionsINS_6vectorIdNS_9allocatorIdEEE16__destroy_vectorEEC2B7v160006ES5_, symObjAddr: 0xB120, symBinAddr: 0x10000D740, symSize: 0x24 }
  - { offsetInCU: 0x1BB03, offset: 0x1BB03, size: 0x8, addend: 0x0, symName: __ZNSt3__16vectorIdNS_9allocatorIdEEE16__destroy_vectorC2ERS3_, symObjAddr: 0xB144, symBinAddr: 0x10000D764, symSize: 0x20 }
  - { offsetInCU: 0x1BB3C, offset: 0x1BB3C, size: 0x8, addend: 0x0, symName: __ZNKSt3__16vectorIdNS_9allocatorIdEEE8max_sizeEv, symObjAddr: 0xB164, symBinAddr: 0x10000D784, symSize: 0x60 }
  - { offsetInCU: 0x1BB64, offset: 0x1BB64, size: 0x8, addend: 0x0, symName: __ZNKSt3__16vectorIdNS_9allocatorIdEEE20__throw_length_errorB7v160006Ev, symObjAddr: 0xB1C4, symBinAddr: 0x10000D7E4, symSize: 0x1C }
  - { offsetInCU: 0x1BB8A, offset: 0x1BB8A, size: 0x8, addend: 0x0, symName: __ZNSt3__16vectorIdNS_9allocatorIdEEE7__allocB7v160006Ev, symObjAddr: 0xB220, symBinAddr: 0x10000D840, symSize: 0x28 }
  - { offsetInCU: 0x1BBB0, offset: 0x1BBB0, size: 0x8, addend: 0x0, symName: __ZNSt3__16vectorIdNS_9allocatorIdEEE9__end_capB7v160006Ev, symObjAddr: 0xB248, symBinAddr: 0x10000D868, symSize: 0x28 }
  - { offsetInCU: 0x1BBD6, offset: 0x1BBD6, size: 0x8, addend: 0x0, symName: __ZNKSt3__16vectorIdNS_9allocatorIdEEE14__annotate_newB7v160006Em, symObjAddr: 0xB270, symBinAddr: 0x10000D890, symSize: 0xAC }
  - { offsetInCU: 0x1BC15, offset: 0x1BC15, size: 0x8, addend: 0x0, symName: __ZNSt3__116allocator_traitsINS_9allocatorIdEEE8max_sizeB7v160006IS2_vEEmRKS2_, symObjAddr: 0xB31C, symBinAddr: 0x10000D93C, symSize: 0x24 }
  - { offsetInCU: 0x1BC43, offset: 0x1BC43, size: 0x8, addend: 0x0, symName: __ZNKSt3__16vectorIdNS_9allocatorIdEEE7__allocB7v160006Ev, symObjAddr: 0xB340, symBinAddr: 0x10000D960, symSize: 0x28 }
  - { offsetInCU: 0x1BC69, offset: 0x1BC69, size: 0x8, addend: 0x0, symName: __ZNKSt3__19allocatorIdE8max_sizeB7v160006Ev, symObjAddr: 0xB368, symBinAddr: 0x10000D988, symSize: 0x14 }
  - { offsetInCU: 0x1BC8F, offset: 0x1BC8F, size: 0x8, addend: 0x0, symName: __ZNKSt3__117__compressed_pairIPdNS_9allocatorIdEEE6secondB7v160006Ev, symObjAddr: 0xB37C, symBinAddr: 0x10000D99C, symSize: 0x24 }
  - { offsetInCU: 0x1BCB5, offset: 0x1BCB5, size: 0x8, addend: 0x0, symName: __ZNKSt3__122__compressed_pair_elemINS_9allocatorIdEELi1ELb1EE5__getB7v160006Ev, symObjAddr: 0xB3A0, symBinAddr: 0x10000D9C0, symSize: 0x14 }
  - { offsetInCU: 0x1BCDB, offset: 0x1BCDB, size: 0x8, addend: 0x0, symName: __ZNSt3__19allocatorIdE8allocateB7v160006Em, symObjAddr: 0xB3B4, symBinAddr: 0x10000D9D4, symSize: 0x58 }
  - { offsetInCU: 0x1BD0F, offset: 0x1BD0F, size: 0x8, addend: 0x0, symName: __ZNSt3__117__compressed_pairIPdNS_9allocatorIdEEE6secondB7v160006Ev, symObjAddr: 0xB40C, symBinAddr: 0x10000DA2C, symSize: 0x24 }
  - { offsetInCU: 0x1BD35, offset: 0x1BD35, size: 0x8, addend: 0x0, symName: __ZNSt3__122__compressed_pair_elemINS_9allocatorIdEELi1ELb1EE5__getB7v160006Ev, symObjAddr: 0xB430, symBinAddr: 0x10000DA50, symSize: 0x14 }
  - { offsetInCU: 0x1BD5B, offset: 0x1BD5B, size: 0x8, addend: 0x0, symName: __ZNSt3__117__compressed_pairIPdNS_9allocatorIdEEE5firstB7v160006Ev, symObjAddr: 0xB444, symBinAddr: 0x10000DA64, symSize: 0x24 }
  - { offsetInCU: 0x1BD81, offset: 0x1BD81, size: 0x8, addend: 0x0, symName: __ZNSt3__122__compressed_pair_elemIPdLi0ELb0EE5__getB7v160006Ev, symObjAddr: 0xB468, symBinAddr: 0x10000DA88, symSize: 0x14 }
  - { offsetInCU: 0x1BDA7, offset: 0x1BDA7, size: 0x8, addend: 0x0, symName: __ZNKSt3__16vectorIdNS_9allocatorIdEEE31__annotate_contiguous_containerB7v160006EPKvS5_S5_S5_, symObjAddr: 0xB47C, symBinAddr: 0x10000DA9C, symSize: 0x20 }
  - { offsetInCU: 0x1BDF9, offset: 0x1BDF9, size: 0x8, addend: 0x0, symName: __ZNKSt3__16vectorIdNS_9allocatorIdEEE4dataB7v160006Ev, symObjAddr: 0xB49C, symBinAddr: 0x10000DABC, symSize: 0x28 }
  - { offsetInCU: 0x1BE1F, offset: 0x1BE1F, size: 0x8, addend: 0x0, symName: __ZNKSt3__16vectorIdNS_9allocatorIdEEE8capacityB7v160006Ev, symObjAddr: 0xB4C4, symBinAddr: 0x10000DAE4, symSize: 0x40 }
  - { offsetInCU: 0x1BE45, offset: 0x1BE45, size: 0x8, addend: 0x0, symName: __ZNKSt3__16vectorIdNS_9allocatorIdEEE9__end_capB7v160006Ev, symObjAddr: 0xB518, symBinAddr: 0x10000DB38, symSize: 0x28 }
  - { offsetInCU: 0x1BE6B, offset: 0x1BE6B, size: 0x8, addend: 0x0, symName: __ZNKSt3__117__compressed_pairIPdNS_9allocatorIdEEE5firstB7v160006Ev, symObjAddr: 0xB540, symBinAddr: 0x10000DB60, symSize: 0x24 }
  - { offsetInCU: 0x1BE91, offset: 0x1BE91, size: 0x8, addend: 0x0, symName: __ZNKSt3__122__compressed_pair_elemIPdLi0ELb0EE5__getB7v160006Ev, symObjAddr: 0xB564, symBinAddr: 0x10000DB84, symSize: 0x14 }
  - { offsetInCU: 0x1BED0, offset: 0x1BED0, size: 0x8, addend: 0x0, symName: __ZNSt3__16vectorIdNS_9allocatorIdEEE21_ConstructTransactionC1B7v160006ERS3_m, symObjAddr: 0xB578, symBinAddr: 0x10000DB98, symSize: 0x3C }
  - { offsetInCU: 0x1BF18, offset: 0x1BF18, size: 0x8, addend: 0x0, symName: __ZNSt3__116allocator_traitsINS_9allocatorIdEEE9constructB7v160006IdJEvEEvRS2_PT_DpOT0_, symObjAddr: 0xB5B4, symBinAddr: 0x10000DBD4, symSize: 0x2C }
  - { offsetInCU: 0x1BF5A, offset: 0x1BF5A, size: 0x8, addend: 0x0, symName: __ZNSt3__16vectorIdNS_9allocatorIdEEE21_ConstructTransactionD1B7v160006Ev, symObjAddr: 0xB5E0, symBinAddr: 0x10000DC00, symSize: 0x2C }
  - { offsetInCU: 0x1BF84, offset: 0x1BF84, size: 0x8, addend: 0x0, symName: __ZNSt3__16vectorIdNS_9allocatorIdEEE21_ConstructTransactionC2B7v160006ERS3_m, symObjAddr: 0xB60C, symBinAddr: 0x10000DC2C, symSize: 0x44 }
  - { offsetInCU: 0x1BFCC, offset: 0x1BFCC, size: 0x8, addend: 0x0, symName: __ZNSt3__19allocatorIdE9constructB7v160006IdJEEEvPT_DpOT0_, symObjAddr: 0xB650, symBinAddr: 0x10000DC70, symSize: 0x20 }
  - { offsetInCU: 0x1C00E, offset: 0x1C00E, size: 0x8, addend: 0x0, symName: __ZNSt3__16vectorIdNS_9allocatorIdEEE21_ConstructTransactionD2B7v160006Ev, symObjAddr: 0xB670, symBinAddr: 0x10000DC90, symSize: 0x20 }
  - { offsetInCU: 0x1C038, offset: 0x1C038, size: 0x8, addend: 0x0, symName: __ZNSt3__128__exception_guard_exceptionsINS_6vectorIdNS_9allocatorIdEEE16__destroy_vectorEED2B7v160006Ev, symObjAddr: 0xB690, symBinAddr: 0x10000DCB0, symSize: 0x50 }
  - { offsetInCU: 0x1C062, offset: 0x1C062, size: 0x8, addend: 0x0, symName: __ZNSt3__16vectorIdNS_9allocatorIdEEE16__destroy_vectorclB7v160006Ev, symObjAddr: 0xB6E0, symBinAddr: 0x10000DD00, symSize: 0x9C }
  - { offsetInCU: 0x1C088, offset: 0x1C088, size: 0x8, addend: 0x0, symName: __ZNKSt3__16vectorIdNS_9allocatorIdEEE17__annotate_deleteB7v160006Ev, symObjAddr: 0xB77C, symBinAddr: 0x10000DD9C, symSize: 0xB8 }
  - { offsetInCU: 0x1C0AE, offset: 0x1C0AE, size: 0x8, addend: 0x0, symName: __ZNSt3__16vectorIdNS_9allocatorIdEEE7__clearB7v160006Ev, symObjAddr: 0xB844, symBinAddr: 0x10000DE64, symSize: 0x28 }
  - { offsetInCU: 0x1C0D4, offset: 0x1C0D4, size: 0x8, addend: 0x0, symName: __ZNSt3__116allocator_traitsINS_9allocatorIdEEE10deallocateB7v160006ERS2_Pdm, symObjAddr: 0xB86C, symBinAddr: 0x10000DE8C, symSize: 0x34 }
  - { offsetInCU: 0x1C116, offset: 0x1C116, size: 0x8, addend: 0x0, symName: __ZNSt3__16vectorIdNS_9allocatorIdEEE22__base_destruct_at_endB7v160006EPd, symObjAddr: 0xB8A0, symBinAddr: 0x10000DEC0, symSize: 0x8C }
  - { offsetInCU: 0x1C15A, offset: 0x1C15A, size: 0x8, addend: 0x0, symName: __ZNSt3__116allocator_traitsINS_9allocatorIdEEE7destroyB7v160006IdvEEvRS2_PT_, symObjAddr: 0xB92C, symBinAddr: 0x10000DF4C, symSize: 0x2C }
  - { offsetInCU: 0x1C197, offset: 0x1C197, size: 0x8, addend: 0x0, symName: __ZNSt3__19allocatorIdE7destroyB7v160006EPd, symObjAddr: 0xB958, symBinAddr: 0x10000DF78, symSize: 0x14 }
  - { offsetInCU: 0x1C1CB, offset: 0x1C1CB, size: 0x8, addend: 0x0, symName: __ZNSt3__19allocatorIdE10deallocateB7v160006EPdm, symObjAddr: 0xB96C, symBinAddr: 0x10000DF8C, symSize: 0x40 }
  - { offsetInCU: 0x1C20D, offset: 0x1C20D, size: 0x8, addend: 0x0, symName: __ZNSt3__16vectorIdNS_9allocatorIdEEED2B7v160006Ev, symObjAddr: 0xB9AC, symBinAddr: 0x10000DFCC, symSize: 0x44 }
  - { offsetInCU: 0x1C237, offset: 0x1C237, size: 0x8, addend: 0x0, symName: __ZNSt3__16vectorIdNS_9allocatorIdEEE13__move_assignERS3_NS_17integral_constantIbLb1EEE, symObjAddr: 0xB9F0, symBinAddr: 0x10000E010, symSize: 0xAC }
  - { offsetInCU: 0x1C279, offset: 0x1C279, size: 0x8, addend: 0x0, symName: __ZNSt3__16vectorIdNS_9allocatorIdEEE13__vdeallocateEv, symObjAddr: 0xBA9C, symBinAddr: 0x10000E0BC, symSize: 0x8C }
  - { offsetInCU: 0x1C2A1, offset: 0x1C2A1, size: 0x8, addend: 0x0, symName: __ZNSt3__16vectorIdNS_9allocatorIdEEE19__move_assign_allocB7v160006ERS3_, symObjAddr: 0xBB28, symBinAddr: 0x10000E148, symSize: 0x2C }
  - { offsetInCU: 0x1C2D6, offset: 0x1C2D6, size: 0x8, addend: 0x0, symName: __ZNSt3__16vectorIdNS_9allocatorIdEEE5clearB7v160006Ev, symObjAddr: 0xBB68, symBinAddr: 0x10000E188, symSize: 0x54 }
  - { offsetInCU: 0x1C30B, offset: 0x1C30B, size: 0x8, addend: 0x0, symName: __ZNKSt3__16vectorIdNS_9allocatorIdEEE17__annotate_shrinkB7v160006Em, symObjAddr: 0xBBBC, symBinAddr: 0x10000E1DC, symSize: 0xB4 }
  - { offsetInCU: 0x1C340, offset: 0x1C340, size: 0x8, addend: 0x0, symName: __ZNSt3__16vectorIdNS_9allocatorIdEEE19__move_assign_allocB7v160006ERS3_NS_17integral_constantIbLb1EEE, symObjAddr: 0xBC80, symBinAddr: 0x10000E2A0, symSize: 0x38 }
  - { offsetInCU: 0x1C380, offset: 0x1C380, size: 0x8, addend: 0x0, symName: __ZNSt3__16vectorIdNS_9allocatorIdEEE11__make_iterB7v160006EPd, symObjAddr: 0xBCB8, symBinAddr: 0x10000E2D8, symSize: 0x34 }
  - { offsetInCU: 0x1C3B5, offset: 0x1C3B5, size: 0x8, addend: 0x0, symName: __ZNSt3__111__wrap_iterIPdEC1B7v160006EPKvS1_, symObjAddr: 0xBCEC, symBinAddr: 0x10000E30C, symSize: 0x3C }
  - { offsetInCU: 0x1C3FB, offset: 0x1C3FB, size: 0x8, addend: 0x0, symName: __ZNSt3__111__wrap_iterIPdEC2B7v160006EPKvS1_, symObjAddr: 0xBD28, symBinAddr: 0x10000E348, symSize: 0x24 }
  - { offsetInCU: 0x1C441, offset: 0x1C441, size: 0x8, addend: 0x0, symName: __ZNSt3__16vectorI9dataPointNS_9allocatorIS1_EEE13__move_assignERS4_NS_17integral_constantIbLb1EEE, symObjAddr: 0xBD4C, symBinAddr: 0x10000E36C, symSize: 0xAC }
  - { offsetInCU: 0x1C483, offset: 0x1C483, size: 0x8, addend: 0x0, symName: __ZNSt3__16vectorI9dataPointNS_9allocatorIS1_EEE19__move_assign_allocB7v160006ERS4_, symObjAddr: 0xBDF8, symBinAddr: 0x10000E418, symSize: 0x2C }
  - { offsetInCU: 0x1C4B8, offset: 0x1C4B8, size: 0x8, addend: 0x0, symName: __ZNSt3__16vectorI9dataPointNS_9allocatorIS1_EEE19__move_assign_allocB7v160006ERS4_NS_17integral_constantIbLb1EEE, symObjAddr: 0xBE38, symBinAddr: 0x10000E458, symSize: 0x38 }
  - { offsetInCU: 0x1C4F8, offset: 0x1C4F8, size: 0x8, addend: 0x0, symName: __ZNSt3__16vectorImNS_9allocatorImEEE13__move_assignERS3_NS_17integral_constantIbLb1EEE, symObjAddr: 0xBE70, symBinAddr: 0x10000E490, symSize: 0xAC }
  - { offsetInCU: 0x1C53A, offset: 0x1C53A, size: 0x8, addend: 0x0, symName: __ZNSt3__16vectorImNS_9allocatorImEEE19__move_assign_allocB7v160006ERS3_, symObjAddr: 0xBF1C, symBinAddr: 0x10000E53C, symSize: 0x2C }
  - { offsetInCU: 0x1C56F, offset: 0x1C56F, size: 0x8, addend: 0x0, symName: __ZNSt3__16vectorImNS_9allocatorImEEE19__move_assign_allocB7v160006ERS3_NS_17integral_constantIbLb1EEE, symObjAddr: 0xBF5C, symBinAddr: 0x10000E57C, symSize: 0x38 }
  - { offsetInCU: 0x1C5AF, offset: 0x1C5AF, size: 0x8, addend: 0x0, symName: __ZNSt3__16vectorI23activationFunctionIndexNS_9allocatorIS1_EEEC2Em, symObjAddr: 0xBF94, symBinAddr: 0x10000E5B4, symSize: 0xE0 }
  - { offsetInCU: 0x1C5FF, offset: 0x1C5FF, size: 0x8, addend: 0x0, symName: __ZNSt3__117__compressed_pairIP23activationFunctionIndexNS_9allocatorIS1_EEEC1B7v160006IDnNS_18__default_init_tagEEEOT_OT0_, symObjAddr: 0xC074, symBinAddr: 0x10000E694, symSize: 0x3C }
  - { offsetInCU: 0x1C657, offset: 0x1C657, size: 0x8, addend: 0x0, symName: __ZNSt3__16vectorI23activationFunctionIndexNS_9allocatorIS1_EEE16__destroy_vectorC1ERS4_, symObjAddr: 0xC0F0, symBinAddr: 0x10000E710, symSize: 0x34 }
  - { offsetInCU: 0x1C690, offset: 0x1C690, size: 0x8, addend: 0x0, symName: __ZNSt3__16vectorI23activationFunctionIndexNS_9allocatorIS1_EEE11__vallocateB7v160006Em, symObjAddr: 0xC134, symBinAddr: 0x10000E754, symSize: 0xAC }
  - { offsetInCU: 0x1C6D4, offset: 0x1C6D4, size: 0x8, addend: 0x0, symName: __ZNSt3__16vectorI23activationFunctionIndexNS_9allocatorIS1_EEE18__construct_at_endEm, symObjAddr: 0xC1E0, symBinAddr: 0x10000E800, symSize: 0xC8 }
  - { offsetInCU: 0x1C746, offset: 0x1C746, size: 0x8, addend: 0x0, symName: __ZNSt3__128__exception_guard_exceptionsINS_6vectorI23activationFunctionIndexNS_9allocatorIS2_EEE16__destroy_vectorEE10__completeB7v160006Ev, symObjAddr: 0xC2A8, symBinAddr: 0x10000E8C8, symSize: 0x1C }
  - { offsetInCU: 0x1C76C, offset: 0x1C76C, size: 0x8, addend: 0x0, symName: __ZNSt3__128__exception_guard_exceptionsINS_6vectorI23activationFunctionIndexNS_9allocatorIS2_EEE16__destroy_vectorEED1B7v160006Ev, symObjAddr: 0xC2C4, symBinAddr: 0x10000E8E4, symSize: 0x2C }
  - { offsetInCU: 0x1C796, offset: 0x1C796, size: 0x8, addend: 0x0, symName: __ZNSt3__117__compressed_pairIP23activationFunctionIndexNS_9allocatorIS1_EEEC2B7v160006IDnNS_18__default_init_tagEEEOT_OT0_, symObjAddr: 0xC2F0, symBinAddr: 0x10000E910, symSize: 0x40 }
  - { offsetInCU: 0x1C7EE, offset: 0x1C7EE, size: 0x8, addend: 0x0, symName: __ZNSt3__122__compressed_pair_elemIP23activationFunctionIndexLi0ELb0EEC2B7v160006IDnvEEOT_, symObjAddr: 0xC330, symBinAddr: 0x10000E950, symSize: 0x1C }
  - { offsetInCU: 0x1C830, offset: 0x1C830, size: 0x8, addend: 0x0, symName: __ZNSt3__122__compressed_pair_elemINS_9allocatorI23activationFunctionIndexEELi1ELb1EEC2B7v160006ENS_18__default_init_tagE, symObjAddr: 0xC34C, symBinAddr: 0x10000E96C, symSize: 0x2C }
  - { offsetInCU: 0x1C864, offset: 0x1C864, size: 0x8, addend: 0x0, symName: __ZNSt3__19allocatorI23activationFunctionIndexEC2B7v160006Ev, symObjAddr: 0xC378, symBinAddr: 0x10000E998, symSize: 0x2C }
  - { offsetInCU: 0x1C88E, offset: 0x1C88E, size: 0x8, addend: 0x0, symName: __ZNSt3__116__non_trivial_ifILb1ENS_9allocatorI23activationFunctionIndexEEEC2B7v160006Ev, symObjAddr: 0xC3A4, symBinAddr: 0x10000E9C4, symSize: 0x14 }
  - { offsetInCU: 0x1C8B8, offset: 0x1C8B8, size: 0x8, addend: 0x0, symName: __ZNSt3__128__exception_guard_exceptionsINS_6vectorI23activationFunctionIndexNS_9allocatorIS2_EEE16__destroy_vectorEEC1B7v160006ES6_, symObjAddr: 0xC3B8, symBinAddr: 0x10000E9D8, symSize: 0x34 }
  - { offsetInCU: 0x1C8F0, offset: 0x1C8F0, size: 0x8, addend: 0x0, symName: __ZNSt3__128__exception_guard_exceptionsINS_6vectorI23activationFunctionIndexNS_9allocatorIS2_EEE16__destroy_vectorEEC2B7v160006ES6_, symObjAddr: 0xC3EC, symBinAddr: 0x10000EA0C, symSize: 0x24 }
  - { offsetInCU: 0x1C928, offset: 0x1C928, size: 0x8, addend: 0x0, symName: __ZNSt3__16vectorI23activationFunctionIndexNS_9allocatorIS1_EEE16__destroy_vectorC2ERS4_, symObjAddr: 0xC410, symBinAddr: 0x10000EA30, symSize: 0x20 }
  - { offsetInCU: 0x1C961, offset: 0x1C961, size: 0x8, addend: 0x0, symName: __ZNKSt3__16vectorI23activationFunctionIndexNS_9allocatorIS1_EEE8max_sizeEv, symObjAddr: 0xC430, symBinAddr: 0x10000EA50, symSize: 0x60 }
  - { offsetInCU: 0x1C989, offset: 0x1C989, size: 0x8, addend: 0x0, symName: __ZNKSt3__16vectorI23activationFunctionIndexNS_9allocatorIS1_EEE20__throw_length_errorB7v160006Ev, symObjAddr: 0xC490, symBinAddr: 0x10000EAB0, symSize: 0x1C }
  - { offsetInCU: 0x1C9AF, offset: 0x1C9AF, size: 0x8, addend: 0x0, symName: __ZNSt3__16vectorI23activationFunctionIndexNS_9allocatorIS1_EEE7__allocB7v160006Ev, symObjAddr: 0xC4EC, symBinAddr: 0x10000EB0C, symSize: 0x28 }
  - { offsetInCU: 0x1C9D5, offset: 0x1C9D5, size: 0x8, addend: 0x0, symName: __ZNSt3__16vectorI23activationFunctionIndexNS_9allocatorIS1_EEE9__end_capB7v160006Ev, symObjAddr: 0xC514, symBinAddr: 0x10000EB34, symSize: 0x28 }
  - { offsetInCU: 0x1C9FB, offset: 0x1C9FB, size: 0x8, addend: 0x0, symName: __ZNKSt3__16vectorI23activationFunctionIndexNS_9allocatorIS1_EEE14__annotate_newB7v160006Em, symObjAddr: 0xC53C, symBinAddr: 0x10000EB5C, symSize: 0xAC }
  - { offsetInCU: 0x1CA3A, offset: 0x1CA3A, size: 0x8, addend: 0x0, symName: __ZNSt3__116allocator_traitsINS_9allocatorI23activationFunctionIndexEEE8max_sizeB7v160006IS3_vEEmRKS3_, symObjAddr: 0xC5E8, symBinAddr: 0x10000EC08, symSize: 0x24 }
  - { offsetInCU: 0x1CA68, offset: 0x1CA68, size: 0x8, addend: 0x0, symName: __ZNKSt3__16vectorI23activationFunctionIndexNS_9allocatorIS1_EEE7__allocB7v160006Ev, symObjAddr: 0xC60C, symBinAddr: 0x10000EC2C, symSize: 0x28 }
  - { offsetInCU: 0x1CA8E, offset: 0x1CA8E, size: 0x8, addend: 0x0, symName: __ZNKSt3__19allocatorI23activationFunctionIndexE8max_sizeB7v160006Ev, symObjAddr: 0xC634, symBinAddr: 0x10000EC54, symSize: 0x14 }
  - { offsetInCU: 0x1CAB4, offset: 0x1CAB4, size: 0x8, addend: 0x0, symName: __ZNKSt3__117__compressed_pairIP23activationFunctionIndexNS_9allocatorIS1_EEE6secondB7v160006Ev, symObjAddr: 0xC648, symBinAddr: 0x10000EC68, symSize: 0x24 }
  - { offsetInCU: 0x1CADA, offset: 0x1CADA, size: 0x8, addend: 0x0, symName: __ZNKSt3__122__compressed_pair_elemINS_9allocatorI23activationFunctionIndexEELi1ELb1EE5__getB7v160006Ev, symObjAddr: 0xC66C, symBinAddr: 0x10000EC8C, symSize: 0x14 }
  - { offsetInCU: 0x1CB00, offset: 0x1CB00, size: 0x8, addend: 0x0, symName: __ZNSt3__19allocatorI23activationFunctionIndexE8allocateB7v160006Em, symObjAddr: 0xC680, symBinAddr: 0x10000ECA0, symSize: 0x58 }
  - { offsetInCU: 0x1CB34, offset: 0x1CB34, size: 0x8, addend: 0x0, symName: __ZNSt3__117__compressed_pairIP23activationFunctionIndexNS_9allocatorIS1_EEE6secondB7v160006Ev, symObjAddr: 0xC6D8, symBinAddr: 0x10000ECF8, symSize: 0x24 }
  - { offsetInCU: 0x1CB5A, offset: 0x1CB5A, size: 0x8, addend: 0x0, symName: __ZNSt3__122__compressed_pair_elemINS_9allocatorI23activationFunctionIndexEELi1ELb1EE5__getB7v160006Ev, symObjAddr: 0xC6FC, symBinAddr: 0x10000ED1C, symSize: 0x14 }
  - { offsetInCU: 0x1CB80, offset: 0x1CB80, size: 0x8, addend: 0x0, symName: __ZNSt3__117__compressed_pairIP23activationFunctionIndexNS_9allocatorIS1_EEE5firstB7v160006Ev, symObjAddr: 0xC710, symBinAddr: 0x10000ED30, symSize: 0x24 }
  - { offsetInCU: 0x1CBA6, offset: 0x1CBA6, size: 0x8, addend: 0x0, symName: __ZNSt3__122__compressed_pair_elemIP23activationFunctionIndexLi0ELb0EE5__getB7v160006Ev, symObjAddr: 0xC734, symBinAddr: 0x10000ED54, symSize: 0x14 }
  - { offsetInCU: 0x1CBCC, offset: 0x1CBCC, size: 0x8, addend: 0x0, symName: __ZNKSt3__16vectorI23activationFunctionIndexNS_9allocatorIS1_EEE31__annotate_contiguous_containerB7v160006EPKvS6_S6_S6_, symObjAddr: 0xC748, symBinAddr: 0x10000ED68, symSize: 0x20 }
  - { offsetInCU: 0x1CC1E, offset: 0x1CC1E, size: 0x8, addend: 0x0, symName: __ZNKSt3__16vectorI23activationFunctionIndexNS_9allocatorIS1_EEE4dataB7v160006Ev, symObjAddr: 0xC768, symBinAddr: 0x10000ED88, symSize: 0x28 }
  - { offsetInCU: 0x1CC44, offset: 0x1CC44, size: 0x8, addend: 0x0, symName: __ZNKSt3__16vectorI23activationFunctionIndexNS_9allocatorIS1_EEE8capacityB7v160006Ev, symObjAddr: 0xC790, symBinAddr: 0x10000EDB0, symSize: 0x40 }
  - { offsetInCU: 0x1CC6A, offset: 0x1CC6A, size: 0x8, addend: 0x0, symName: __ZNKSt3__16vectorI23activationFunctionIndexNS_9allocatorIS1_EEE9__end_capB7v160006Ev, symObjAddr: 0xC7E4, symBinAddr: 0x10000EE04, symSize: 0x28 }
  - { offsetInCU: 0x1CC90, offset: 0x1CC90, size: 0x8, addend: 0x0, symName: __ZNKSt3__117__compressed_pairIP23activationFunctionIndexNS_9allocatorIS1_EEE5firstB7v160006Ev, symObjAddr: 0xC80C, symBinAddr: 0x10000EE2C, symSize: 0x24 }
  - { offsetInCU: 0x1CCB6, offset: 0x1CCB6, size: 0x8, addend: 0x0, symName: __ZNKSt3__122__compressed_pair_elemIP23activationFunctionIndexLi0ELb0EE5__getB7v160006Ev, symObjAddr: 0xC830, symBinAddr: 0x10000EE50, symSize: 0x14 }
  - { offsetInCU: 0x1CCF5, offset: 0x1CCF5, size: 0x8, addend: 0x0, symName: __ZNSt3__16vectorI23activationFunctionIndexNS_9allocatorIS1_EEE21_ConstructTransactionC1B7v160006ERS4_m, symObjAddr: 0xC844, symBinAddr: 0x10000EE64, symSize: 0x3C }
  - { offsetInCU: 0x1CD3D, offset: 0x1CD3D, size: 0x8, addend: 0x0, symName: __ZNSt3__116allocator_traitsINS_9allocatorI23activationFunctionIndexEEE9constructB7v160006IS2_JEvEEvRS3_PT_DpOT0_, symObjAddr: 0xC880, symBinAddr: 0x10000EEA0, symSize: 0x2C }
  - { offsetInCU: 0x1CD7F, offset: 0x1CD7F, size: 0x8, addend: 0x0, symName: __ZNSt3__16vectorI23activationFunctionIndexNS_9allocatorIS1_EEE21_ConstructTransactionD1B7v160006Ev, symObjAddr: 0xC8AC, symBinAddr: 0x10000EECC, symSize: 0x2C }
  - { offsetInCU: 0x1CDA9, offset: 0x1CDA9, size: 0x8, addend: 0x0, symName: __ZNSt3__16vectorI23activationFunctionIndexNS_9allocatorIS1_EEE21_ConstructTransactionC2B7v160006ERS4_m, symObjAddr: 0xC8D8, symBinAddr: 0x10000EEF8, symSize: 0x44 }
  - { offsetInCU: 0x1CDF1, offset: 0x1CDF1, size: 0x8, addend: 0x0, symName: __ZNSt3__19allocatorI23activationFunctionIndexE9constructB7v160006IS1_JEEEvPT_DpOT0_, symObjAddr: 0xC91C, symBinAddr: 0x10000EF3C, symSize: 0x1C }
  - { offsetInCU: 0x1CE33, offset: 0x1CE33, size: 0x8, addend: 0x0, symName: __ZNSt3__16vectorI23activationFunctionIndexNS_9allocatorIS1_EEE21_ConstructTransactionD2B7v160006Ev, symObjAddr: 0xC938, symBinAddr: 0x10000EF58, symSize: 0x20 }
  - { offsetInCU: 0x1CE5D, offset: 0x1CE5D, size: 0x8, addend: 0x0, symName: __ZNSt3__128__exception_guard_exceptionsINS_6vectorI23activationFunctionIndexNS_9allocatorIS2_EEE16__destroy_vectorEED2B7v160006Ev, symObjAddr: 0xC958, symBinAddr: 0x10000EF78, symSize: 0x50 }
  - { offsetInCU: 0x1CE87, offset: 0x1CE87, size: 0x8, addend: 0x0, symName: __ZNSt3__16vectorI23activationFunctionIndexNS_9allocatorIS1_EEE16__destroy_vectorclB7v160006Ev, symObjAddr: 0xC9A8, symBinAddr: 0x10000EFC8, symSize: 0x9C }
  - { offsetInCU: 0x1CEAD, offset: 0x1CEAD, size: 0x8, addend: 0x0, symName: __ZNKSt3__16vectorI23activationFunctionIndexNS_9allocatorIS1_EEE17__annotate_deleteB7v160006Ev, symObjAddr: 0xCA44, symBinAddr: 0x10000F064, symSize: 0xB8 }
  - { offsetInCU: 0x1CED3, offset: 0x1CED3, size: 0x8, addend: 0x0, symName: __ZNSt3__16vectorI23activationFunctionIndexNS_9allocatorIS1_EEE7__clearB7v160006Ev, symObjAddr: 0xCB0C, symBinAddr: 0x10000F12C, symSize: 0x28 }
  - { offsetInCU: 0x1CEF9, offset: 0x1CEF9, size: 0x8, addend: 0x0, symName: __ZNSt3__116allocator_traitsINS_9allocatorI23activationFunctionIndexEEE10deallocateB7v160006ERS3_PS2_m, symObjAddr: 0xCB34, symBinAddr: 0x10000F154, symSize: 0x34 }
  - { offsetInCU: 0x1CF3B, offset: 0x1CF3B, size: 0x8, addend: 0x0, symName: __ZNKSt3__16vectorI23activationFunctionIndexNS_9allocatorIS1_EEE4sizeB7v160006Ev, symObjAddr: 0xCB68, symBinAddr: 0x10000F188, symSize: 0x28 }
  - { offsetInCU: 0x1CF61, offset: 0x1CF61, size: 0x8, addend: 0x0, symName: __ZNSt3__16vectorI23activationFunctionIndexNS_9allocatorIS1_EEE22__base_destruct_at_endB7v160006EPS1_, symObjAddr: 0xCB90, symBinAddr: 0x10000F1B0, symSize: 0x8C }
  - { offsetInCU: 0x1CFA5, offset: 0x1CFA5, size: 0x8, addend: 0x0, symName: __ZNSt3__116allocator_traitsINS_9allocatorI23activationFunctionIndexEEE7destroyB7v160006IS2_vEEvRS3_PT_, symObjAddr: 0xCC1C, symBinAddr: 0x10000F23C, symSize: 0x2C }
  - { offsetInCU: 0x1CFE2, offset: 0x1CFE2, size: 0x8, addend: 0x0, symName: __ZNSt3__19allocatorI23activationFunctionIndexE7destroyB7v160006EPS1_, symObjAddr: 0xCC48, symBinAddr: 0x10000F268, symSize: 0x14 }
  - { offsetInCU: 0x1D016, offset: 0x1D016, size: 0x8, addend: 0x0, symName: __ZNSt3__19allocatorI23activationFunctionIndexE10deallocateB7v160006EPS1_m, symObjAddr: 0xCC5C, symBinAddr: 0x10000F27C, symSize: 0x40 }
  - { offsetInCU: 0x1D058, offset: 0x1D058, size: 0x8, addend: 0x0, symName: __ZNSt3__16vectorI23activationFunctionIndexNS_9allocatorIS1_EEED2B7v160006Ev, symObjAddr: 0xCC9C, symBinAddr: 0x10000F2BC, symSize: 0x44 }
  - { offsetInCU: 0x1D082, offset: 0x1D082, size: 0x8, addend: 0x0, symName: __ZNSt3__16vectorImNS_9allocatorImEEE11__make_iterB7v160006EPm, symObjAddr: 0xCCE0, symBinAddr: 0x10000F300, symSize: 0x34 }
  - { offsetInCU: 0x1D0B7, offset: 0x1D0B7, size: 0x8, addend: 0x0, symName: __ZNSt3__111__wrap_iterIPmEC1B7v160006EPKvS1_, symObjAddr: 0xCD14, symBinAddr: 0x10000F334, symSize: 0x3C }
  - { offsetInCU: 0x1D0FD, offset: 0x1D0FD, size: 0x8, addend: 0x0, symName: __ZNSt3__111__wrap_iterIPmEC2B7v160006EPKvS1_, symObjAddr: 0xCD50, symBinAddr: 0x10000F370, symSize: 0x24 }
  - { offsetInCU: 0x1D143, offset: 0x1D143, size: 0x8, addend: 0x0, symName: __ZNSt3__16vectorIdNS_9allocatorIdEEE19__copy_assign_allocB7v160006ERKS3_, symObjAddr: 0xCD74, symBinAddr: 0x10000F394, symSize: 0x2C }
  - { offsetInCU: 0x1D178, offset: 0x1D178, size: 0x8, addend: 0x0, symName: __ZNSt3__16vectorIdNS_9allocatorIdEEE6assignIPdLi0EEEvT_S6_, symObjAddr: 0xCDA0, symBinAddr: 0x10000F3C0, symSize: 0x17C }
  - { offsetInCU: 0x1D217, offset: 0x1D217, size: 0x8, addend: 0x0, symName: __ZNSt3__16vectorIdNS_9allocatorIdEEE19__copy_assign_allocB7v160006ERKS3_NS_17integral_constantIbLb0EEE, symObjAddr: 0xCF1C, symBinAddr: 0x10000F53C, symSize: 0x14 }
  - { offsetInCU: 0x1D253, offset: 0x1D253, size: 0x8, addend: 0x0, symName: __ZNSt3__16vectorIdNS_9allocatorIdEEE18__construct_at_endIPdLi0EEEvT_S6_m, symObjAddr: 0xCFEC, symBinAddr: 0x10000F60C, symSize: 0x8C }
  - { offsetInCU: 0x1D2C6, offset: 0x1D2C6, size: 0x8, addend: 0x0, symName: __ZNSt3__16vectorIdNS_9allocatorIdEEE17__destruct_at_endB7v160006EPd, symObjAddr: 0xD078, symBinAddr: 0x10000F698, symSize: 0x60 }
  - { offsetInCU: 0x1D30A, offset: 0x1D30A, size: 0x8, addend: 0x0, symName: __ZNKSt3__16vectorIdNS_9allocatorIdEEE11__recommendB7v160006Em, symObjAddr: 0xD0D8, symBinAddr: 0x10000F6F8, symSize: 0xB4 }
  - { offsetInCU: 0x1D378, offset: 0x1D378, size: 0x8, addend: 0x0, symName: __ZNKSt3__114__copy_trivialclB7v160006IddLi0EEENS_4pairIPT_PT0_EES4_S4_S6_, symObjAddr: 0xD378, symBinAddr: 0x10000F998, symSize: 0x48 }
  - { offsetInCU: 0x1D3E5, offset: 0x1D3E5, size: 0x8, addend: 0x0, symName: __ZNSt3__14pairIPdS1_EC1B7v160006IRS1_S1_LPv0EEEOT_OT0_, symObjAddr: 0xD540, symBinAddr: 0x10000FB60, symSize: 0x3C }
  - { offsetInCU: 0x1D443, offset: 0x1D443, size: 0x8, addend: 0x0, symName: __ZNSt3__14pairIPdS1_EC2B7v160006IRS1_S1_LPv0EEEOT_OT0_, symObjAddr: 0xD57C, symBinAddr: 0x10000FB9C, symSize: 0x34 }
  - { offsetInCU: 0x1D4A1, offset: 0x1D4A1, size: 0x8, addend: 0x0, symName: __ZNSt3__118__unwrap_iter_implIPdLb1EE8__unwrapB7v160006ES1_, symObjAddr: 0xD5B0, symBinAddr: 0x10000FBD0, symSize: 0x24 }
  - { offsetInCU: 0x1D4C4, offset: 0x1D4C4, size: 0x8, addend: 0x0, symName: __ZNSt3__14pairIPdS1_EC1B7v160006IS1_S1_LPv0EEEOT_OT0_, symObjAddr: 0xD5D4, symBinAddr: 0x10000FBF4, symSize: 0x3C }
  - { offsetInCU: 0x1D522, offset: 0x1D522, size: 0x8, addend: 0x0, symName: __ZNSt3__14pairIPdS1_EC2B7v160006IS1_S1_LPv0EEEOT_OT0_, symObjAddr: 0xD610, symBinAddr: 0x10000FC30, symSize: 0x34 }
  - { offsetInCU: 0x1D580, offset: 0x1D580, size: 0x8, addend: 0x0, symName: __ZNSt3__118__unwrap_iter_implIPdLb1EE8__rewrapB7v160006ES1_S1_, symObjAddr: 0xD644, symBinAddr: 0x10000FC64, symSize: 0x50 }
  - { offsetInCU: 0x1D5B1, offset: 0x1D5B1, size: 0x8, addend: 0x0, symName: __ZNSt3__129_AllocatorDestroyRangeReverseINS_9allocatorIdEEPdEC1B7v160006ERS2_RS3_S6_, symObjAddr: 0xD7D4, symBinAddr: 0x10000FDF4, symSize: 0x44 }
  - { offsetInCU: 0x1D608, offset: 0x1D608, size: 0x8, addend: 0x0, symName: __ZNSt3__116allocator_traitsINS_9allocatorIdEEE9constructB7v160006IdJRdEvEEvRS2_PT_DpOT0_, symObjAddr: 0xD818, symBinAddr: 0x10000FE38, symSize: 0x34 }
  - { offsetInCU: 0x1D65F, offset: 0x1D65F, size: 0x8, addend: 0x0, symName: __ZNSt3__128__exception_guard_exceptionsINS_29_AllocatorDestroyRangeReverseINS_9allocatorIdEEPdEEE10__completeB7v160006Ev, symObjAddr: 0xD84C, symBinAddr: 0x10000FE6C, symSize: 0x1C }
  - { offsetInCU: 0x1D685, offset: 0x1D685, size: 0x8, addend: 0x0, symName: __ZNSt3__128__exception_guard_exceptionsINS_29_AllocatorDestroyRangeReverseINS_9allocatorIdEEPdEEED1B7v160006Ev, symObjAddr: 0xD868, symBinAddr: 0x10000FE88, symSize: 0x2C }
  - { offsetInCU: 0x1D6AF, offset: 0x1D6AF, size: 0x8, addend: 0x0, symName: __ZNSt3__128__exception_guard_exceptionsINS_29_AllocatorDestroyRangeReverseINS_9allocatorIdEEPdEEEC1B7v160006ES5_, symObjAddr: 0xD894, symBinAddr: 0x10000FEB4, symSize: 0x34 }
  - { offsetInCU: 0x1D6E8, offset: 0x1D6E8, size: 0x8, addend: 0x0, symName: __ZNSt3__128__exception_guard_exceptionsINS_29_AllocatorDestroyRangeReverseINS_9allocatorIdEEPdEEEC2B7v160006ES5_, symObjAddr: 0xD8C8, symBinAddr: 0x10000FEE8, symSize: 0x30 }
  - { offsetInCU: 0x1D721, offset: 0x1D721, size: 0x8, addend: 0x0, symName: __ZNSt3__129_AllocatorDestroyRangeReverseINS_9allocatorIdEEPdEC2B7v160006ERS2_RS3_S6_, symObjAddr: 0xD8F8, symBinAddr: 0x10000FF18, symSize: 0x38 }
  - { offsetInCU: 0x1D778, offset: 0x1D778, size: 0x8, addend: 0x0, symName: __ZNSt3__19allocatorIdE9constructB7v160006IdJRdEEEvPT_DpOT0_, symObjAddr: 0xD930, symBinAddr: 0x10000FF50, symSize: 0x28 }
  - { offsetInCU: 0x1D7CE, offset: 0x1D7CE, size: 0x8, addend: 0x0, symName: __ZNSt3__128__exception_guard_exceptionsINS_29_AllocatorDestroyRangeReverseINS_9allocatorIdEEPdEEED2B7v160006Ev, symObjAddr: 0xD958, symBinAddr: 0x10000FF78, symSize: 0x50 }
  - { offsetInCU: 0x1D7F8, offset: 0x1D7F8, size: 0x8, addend: 0x0, symName: __ZNKSt3__129_AllocatorDestroyRangeReverseINS_9allocatorIdEEPdEclB7v160006Ev, symObjAddr: 0xD9A8, symBinAddr: 0x10000FFC8, symSize: 0x68 }
  - { offsetInCU: 0x1D81E, offset: 0x1D81E, size: 0x8, addend: 0x0, symName: __ZNSt3__116reverse_iteratorIPdEC1B7v160006ES1_, symObjAddr: 0xDA80, symBinAddr: 0x1000100A0, symSize: 0x34 }
  - { offsetInCU: 0x1D856, offset: 0x1D856, size: 0x8, addend: 0x0, symName: __ZNSt3__116reverse_iteratorIPdEppB7v160006Ev, symObjAddr: 0xDB20, symBinAddr: 0x100010140, symSize: 0x20 }
  - { offsetInCU: 0x1D87C, offset: 0x1D87C, size: 0x8, addend: 0x0, symName: __ZNKSt3__116reverse_iteratorIPdE4baseB7v160006Ev, symObjAddr: 0xDB40, symBinAddr: 0x100010160, symSize: 0x18 }
  - { offsetInCU: 0x1D8A7, offset: 0x1D8A7, size: 0x8, addend: 0x0, symName: __ZNSt3__119__to_address_helperINS_16reverse_iteratorIPdEEvE6__callB7v160006ERKS3_, symObjAddr: 0xDB58, symBinAddr: 0x100010178, symSize: 0x38 }
  - { offsetInCU: 0x1D8CA, offset: 0x1D8CA, size: 0x8, addend: 0x0, symName: __ZNKSt3__116reverse_iteratorIPdEptB7v160006Ev, symObjAddr: 0xDB90, symBinAddr: 0x1000101B0, symSize: 0x24 }
  - { offsetInCU: 0x1D8F0, offset: 0x1D8F0, size: 0x8, addend: 0x0, symName: __ZNKSt3__116reverse_iteratorIPdEdeB7v160006Ev, symObjAddr: 0xDBB4, symBinAddr: 0x1000101D4, symSize: 0x28 }
  - { offsetInCU: 0x1D924, offset: 0x1D924, size: 0x8, addend: 0x0, symName: __ZNSt3__116reverse_iteratorIPdEC2B7v160006ES1_, symObjAddr: 0xDBDC, symBinAddr: 0x1000101FC, symSize: 0x28 }
  - { offsetInCU: 0x1D95C, offset: 0x1D95C, size: 0x8, addend: 0x0, symName: __ZNSt3__16vectorIdNS_9allocatorIdEEE27__invalidate_iterators_pastB7v160006EPd, symObjAddr: 0xDC04, symBinAddr: 0x100010224, symSize: 0x14 }
  - { offsetInCU: 0x1D993, offset: 0x1D993, size: 0x8, addend: 0x0, symName: __ZNSt3__16vectorIdNS_9allocatorIdEEEC2B7v160006Ev, symObjAddr: 0xDC18, symBinAddr: 0x100010238, symSize: 0x54 }
  - { offsetInCU: 0x1D9BD, offset: 0x1D9BD, size: 0x8, addend: 0x0, symName: __ZNSt3__16vectorIdNS_9allocatorIdEEE22__construct_one_at_endB7v160006IJRKdEEEvDpOT_, symObjAddr: 0xDC6C, symBinAddr: 0x10001028C, symSize: 0x90 }
  - { offsetInCU: 0x1DA0C, offset: 0x1DA0C, size: 0x8, addend: 0x0, symName: __ZNSt3__16vectorIdNS_9allocatorIdEEE21__push_back_slow_pathIRKdEEvOT_, symObjAddr: 0xDCFC, symBinAddr: 0x10001031C, symSize: 0xD8 }
  - { offsetInCU: 0x1DA6A, offset: 0x1DA6A, size: 0x8, addend: 0x0, symName: __ZNSt3__116allocator_traitsINS_9allocatorIdEEE9constructB7v160006IdJRKdEvEEvRS2_PT_DpOT0_, symObjAddr: 0xDDD4, symBinAddr: 0x1000103F4, symSize: 0x34 }
  - { offsetInCU: 0x1DAC1, offset: 0x1DAC1, size: 0x8, addend: 0x0, symName: __ZNSt3__19allocatorIdE9constructB7v160006IdJRKdEEEvPT_DpOT0_, symObjAddr: 0xDE08, symBinAddr: 0x100010428, symSize: 0x28 }
  - { offsetInCU: 0x1DB17, offset: 0x1DB17, size: 0x8, addend: 0x0, symName: __ZNSt3__114__split_bufferIdRNS_9allocatorIdEEEC1EmmS3_, symObjAddr: 0xDE30, symBinAddr: 0x100010450, symSize: 0x44 }
  - { offsetInCU: 0x1DB6D, offset: 0x1DB6D, size: 0x8, addend: 0x0, symName: __ZNSt3__114__split_bufferIdRNS_9allocatorIdEEED1Ev, symObjAddr: 0xDF8C, symBinAddr: 0x1000105AC, symSize: 0x2C }
  - { offsetInCU: 0x1DB99, offset: 0x1DB99, size: 0x8, addend: 0x0, symName: __ZNSt3__114__split_bufferIdRNS_9allocatorIdEEEC2EmmS3_, symObjAddr: 0xDFB8, symBinAddr: 0x1000105D8, symSize: 0xD4 }
  - { offsetInCU: 0x1DC0C, offset: 0x1DC0C, size: 0x8, addend: 0x0, symName: __ZNSt3__117__compressed_pairIPdRNS_9allocatorIdEEEC1B7v160006IDnS4_EEOT_OT0_, symObjAddr: 0xE08C, symBinAddr: 0x1000106AC, symSize: 0x3C }
  - { offsetInCU: 0x1DC64, offset: 0x1DC64, size: 0x8, addend: 0x0, symName: __ZNSt3__114__split_bufferIdRNS_9allocatorIdEEE7__allocB7v160006Ev, symObjAddr: 0xE0C8, symBinAddr: 0x1000106E8, symSize: 0x28 }
  - { offsetInCU: 0x1DC8A, offset: 0x1DC8A, size: 0x8, addend: 0x0, symName: __ZNSt3__114__split_bufferIdRNS_9allocatorIdEEE9__end_capB7v160006Ev, symObjAddr: 0xE0F0, symBinAddr: 0x100010710, symSize: 0x28 }
  - { offsetInCU: 0x1DCB0, offset: 0x1DCB0, size: 0x8, addend: 0x0, symName: __ZNSt3__117__compressed_pairIPdRNS_9allocatorIdEEEC2B7v160006IDnS4_EEOT_OT0_, symObjAddr: 0xE118, symBinAddr: 0x100010738, symSize: 0x48 }
  - { offsetInCU: 0x1DD08, offset: 0x1DD08, size: 0x8, addend: 0x0, symName: __ZNSt3__122__compressed_pair_elemIRNS_9allocatorIdEELi1ELb0EEC2B7v160006IS3_vEEOT_, symObjAddr: 0xE160, symBinAddr: 0x100010780, symSize: 0x20 }
  - { offsetInCU: 0x1DD4A, offset: 0x1DD4A, size: 0x8, addend: 0x0, symName: __ZNSt3__117__compressed_pairIPdRNS_9allocatorIdEEE6secondB7v160006Ev, symObjAddr: 0xE180, symBinAddr: 0x1000107A0, symSize: 0x28 }
  - { offsetInCU: 0x1DD70, offset: 0x1DD70, size: 0x8, addend: 0x0, symName: __ZNSt3__122__compressed_pair_elemIRNS_9allocatorIdEELi1ELb0EE5__getB7v160006Ev, symObjAddr: 0xE1A8, symBinAddr: 0x1000107C8, symSize: 0x18 }
  - { offsetInCU: 0x1DD96, offset: 0x1DD96, size: 0x8, addend: 0x0, symName: __ZNSt3__117__compressed_pairIPdRNS_9allocatorIdEEE5firstB7v160006Ev, symObjAddr: 0xE1C0, symBinAddr: 0x1000107E0, symSize: 0x24 }
  - { offsetInCU: 0x1DDDF, offset: 0x1DDDF, size: 0x8, addend: 0x0, symName: __ZNKSt3__111__move_loopINS_17_ClassicAlgPolicyEEclB7v160006INS_16reverse_iteratorIPdEES6_S6_EENS_4pairIT_T1_EES8_T0_S9_, symObjAddr: 0xE588, symBinAddr: 0x100010BA8, symSize: 0xA0 }
  - { offsetInCU: 0x1DE4F, offset: 0x1DE4F, size: 0x8, addend: 0x0, symName: __ZNSt3__18_IterOpsINS_17_ClassicAlgPolicyEE11__iter_moveB7v160006IRNS_16reverse_iteratorIPdEEEENS_9enable_ifIXsr12is_referenceIDTdeclsr3stdE7declvalIRT_EEEEE5valueEDTclsr3stdE4movedeclsr3stdE7declvalISA_EEEEE4typeEOS9_, symObjAddr: 0xE774, symBinAddr: 0x100010D94, symSize: 0x28 }
  - { offsetInCU: 0x1DE7B, offset: 0x1DE7B, size: 0x8, addend: 0x0, symName: __ZNSt3__18_IterOpsINS_17_ClassicAlgPolicyEE25__validate_iter_referenceB7v160006IRNS_16reverse_iteratorIPdEEEEvv, symObjAddr: 0xE79C, symBinAddr: 0x100010DBC, symSize: 0x4 }
  - { offsetInCU: 0x1DE99, offset: 0x1DE99, size: 0x8, addend: 0x0, symName: __ZNSt3__118__unwrap_iter_implINS_16reverse_iteratorIPdEELb0EE8__unwrapB7v160006ES3_, symObjAddr: 0xE7A0, symBinAddr: 0x100010DC0, symSize: 0x24 }
  - { offsetInCU: 0x1DEC1, offset: 0x1DEC1, size: 0x8, addend: 0x0, symName: __ZNSt3__14pairINS_16reverse_iteratorIPdEES3_EC1B7v160006IS3_S3_LPv0EEEOT_OT0_, symObjAddr: 0xE7C4, symBinAddr: 0x100010DE4, symSize: 0x3C }
  - { offsetInCU: 0x1DF1F, offset: 0x1DF1F, size: 0x8, addend: 0x0, symName: __ZNSt3__14pairINS_16reverse_iteratorIPdEES3_EC2B7v160006IS3_S3_LPv0EEEOT_OT0_, symObjAddr: 0xE800, symBinAddr: 0x100010E20, symSize: 0x34 }
  - { offsetInCU: 0x1DF7D, offset: 0x1DF7D, size: 0x8, addend: 0x0, symName: __ZNSt3__118__unwrap_iter_implINS_16reverse_iteratorIPdEELb0EE8__rewrapB7v160006ES3_S3_, symObjAddr: 0xE834, symBinAddr: 0x100010E54, symSize: 0x2C }
  - { offsetInCU: 0x1DFAA, offset: 0x1DFAA, size: 0x8, addend: 0x0, symName: __ZNSt3__114__split_bufferIdRNS_9allocatorIdEEED2Ev, symObjAddr: 0xE860, symBinAddr: 0x100010E80, symSize: 0x8C }
  - { offsetInCU: 0x1DFD6, offset: 0x1DFD6, size: 0x8, addend: 0x0, symName: __ZNSt3__114__split_bufferIdRNS_9allocatorIdEEE5clearB7v160006Ev, symObjAddr: 0xE8EC, symBinAddr: 0x100010F0C, symSize: 0x28 }
  - { offsetInCU: 0x1DFFC, offset: 0x1DFFC, size: 0x8, addend: 0x0, symName: __ZNKSt3__114__split_bufferIdRNS_9allocatorIdEEE8capacityB7v160006Ev, symObjAddr: 0xE914, symBinAddr: 0x100010F34, symSize: 0x40 }
  - { offsetInCU: 0x1E022, offset: 0x1E022, size: 0x8, addend: 0x0, symName: __ZNSt3__114__split_bufferIdRNS_9allocatorIdEEE17__destruct_at_endB7v160006EPd, symObjAddr: 0xE954, symBinAddr: 0x100010F74, symSize: 0x2C }
  - { offsetInCU: 0x1E056, offset: 0x1E056, size: 0x8, addend: 0x0, symName: __ZNSt3__114__split_bufferIdRNS_9allocatorIdEEE17__destruct_at_endB7v160006EPdNS_17integral_constantIbLb0EEE, symObjAddr: 0xE980, symBinAddr: 0x100010FA0, symSize: 0x80 }
  - { offsetInCU: 0x1E096, offset: 0x1E096, size: 0x8, addend: 0x0, symName: __ZNKSt3__114__split_bufferIdRNS_9allocatorIdEEE9__end_capB7v160006Ev, symObjAddr: 0xEA00, symBinAddr: 0x100011020, symSize: 0x28 }
  - { offsetInCU: 0x1E0BC, offset: 0x1E0BC, size: 0x8, addend: 0x0, symName: __ZNKSt3__117__compressed_pairIPdRNS_9allocatorIdEEE5firstB7v160006Ev, symObjAddr: 0xEA28, symBinAddr: 0x100011048, symSize: 0x24 }
  - { offsetInCU: 0x1E0E2, offset: 0x1E0E2, size: 0x8, addend: 0x0, symName: __ZNSt3__16vectorIdNS_9allocatorIdEEEC2ERKS3_, symObjAddr: 0xEA4C, symBinAddr: 0x10001106C, symSize: 0x110 }
  - { offsetInCU: 0x1E141, offset: 0x1E141, size: 0x8, addend: 0x0, symName: __ZNSt3__116allocator_traitsINS_9allocatorIdEEE37select_on_container_copy_constructionB7v160006IS2_vvEES2_RKS2_, symObjAddr: 0xEB5C, symBinAddr: 0x10001117C, symSize: 0x10 }
  - { offsetInCU: 0x1E175, offset: 0x1E175, size: 0x8, addend: 0x0, symName: __ZNSt3__117__compressed_pairIPdNS_9allocatorIdEEEC1B7v160006IDnS3_EEOT_OT0_, symObjAddr: 0xEB6C, symBinAddr: 0x10001118C, symSize: 0x3C }
  - { offsetInCU: 0x1E1CD, offset: 0x1E1CD, size: 0x8, addend: 0x0, symName: __ZNSt3__117__compressed_pairIPdNS_9allocatorIdEEEC2B7v160006IDnS3_EEOT_OT0_, symObjAddr: 0xEBA8, symBinAddr: 0x1000111C8, symSize: 0x44 }
  - { offsetInCU: 0x1E225, offset: 0x1E225, size: 0x8, addend: 0x0, symName: __ZNSt3__122__compressed_pair_elemINS_9allocatorIdEELi1ELb1EEC2B7v160006IS2_vEEOT_, symObjAddr: 0xEBEC, symBinAddr: 0x10001120C, symSize: 0x18 }
  - { offsetInCU: 0x1E267, offset: 0x1E267, size: 0x8, addend: 0x0, symName: __ZNSt3__111char_traitsIcE6lengthEPKc, symObjAddr: 0xEDF0, symBinAddr: 0x100011410, symSize: 0x34 }
  - { offsetInCU: 0x1E2A8, offset: 0x1E2A8, size: 0x8, addend: 0x0, symName: __ZNKSt3__113basic_ostreamIcNS_11char_traitsIcEEE6sentrycvbB7v160006Ev, symObjAddr: 0xEE24, symBinAddr: 0x100011444, symSize: 0x1C }
  - { offsetInCU: 0x1E2CE, offset: 0x1E2CE, size: 0x8, addend: 0x0, symName: __ZNSt3__119ostreambuf_iteratorIcNS_11char_traitsIcEEEC1B7v160006ERNS_13basic_ostreamIcS2_EE, symObjAddr: 0xF080, symBinAddr: 0x1000116A0, symSize: 0x34 }
  - { offsetInCU: 0x1E306, offset: 0x1E306, size: 0x8, addend: 0x0, symName: __ZNKSt3__18ios_base5flagsB7v160006Ev, symObjAddr: 0xF0B4, symBinAddr: 0x1000116D4, symSize: 0x18 }
  - { offsetInCU: 0x1E32E, offset: 0x1E32E, size: 0x8, addend: 0x0, symName: __ZNKSt3__19basic_iosIcNS_11char_traitsIcEEE4fillB7v160006Ev, symObjAddr: 0xF0CC, symBinAddr: 0x1000116EC, symSize: 0x64 }
  - { offsetInCU: 0x1E356, offset: 0x1E356, size: 0x8, addend: 0x0, symName: __ZNKSt3__119ostreambuf_iteratorIcNS_11char_traitsIcEEE6failedB7v160006Ev, symObjAddr: 0xF130, symBinAddr: 0x100011750, symSize: 0x24 }
  - { offsetInCU: 0x1E37C, offset: 0x1E37C, size: 0x8, addend: 0x0, symName: __ZNSt3__19basic_iosIcNS_11char_traitsIcEEE8setstateB7v160006Ej, symObjAddr: 0xF154, symBinAddr: 0x100011774, symSize: 0x2C }
  - { offsetInCU: 0x1E3B1, offset: 0x1E3B1, size: 0x8, addend: 0x0, symName: __ZNKSt3__18ios_base5widthB7v160006Ev, symObjAddr: 0xF180, symBinAddr: 0x1000117A0, symSize: 0x18 }
  - { offsetInCU: 0x1E3D9, offset: 0x1E3D9, size: 0x8, addend: 0x0, symName: __ZNSt3__115basic_streambufIcNS_11char_traitsIcEEE5sputnB7v160006EPKcl, symObjAddr: 0xF198, symBinAddr: 0x1000117B8, symSize: 0x3C }
  - { offsetInCU: 0x1E41B, offset: 0x1E41B, size: 0x8, addend: 0x0, symName: __ZNSt3__112basic_stringIcNS_11char_traitsIcEENS_9allocatorIcEEEC1B7v160006Emc, symObjAddr: 0xF1D4, symBinAddr: 0x1000117F4, symSize: 0x3C }
  - { offsetInCU: 0x1E463, offset: 0x1E463, size: 0x8, addend: 0x0, symName: __ZNSt3__112basic_stringIcNS_11char_traitsIcEENS_9allocatorIcEEE4dataB7v160006Ev, symObjAddr: 0xF210, symBinAddr: 0x100011830, symSize: 0x28 }
  - { offsetInCU: 0x1E489, offset: 0x1E489, size: 0x8, addend: 0x0, symName: __ZNSt3__18ios_base5widthB7v160006El, symObjAddr: 0xF238, symBinAddr: 0x100011858, symSize: 0x2C }
  - { offsetInCU: 0x1E4CF, offset: 0x1E4CF, size: 0x8, addend: 0x0, symName: __ZNSt3__112basic_stringIcNS_11char_traitsIcEENS_9allocatorIcEEEC2B7v160006Emc, symObjAddr: 0xF264, symBinAddr: 0x100011884, symSize: 0x54 }
  - { offsetInCU: 0x1E517, offset: 0x1E517, size: 0x8, addend: 0x0, symName: __ZNSt3__117__compressed_pairINS_12basic_stringIcNS_11char_traitsIcEENS_9allocatorIcEEE5__repES5_EC1B7v160006INS_18__default_init_tagESA_EEOT_OT0_, symObjAddr: 0xF2B8, symBinAddr: 0x1000118D8, symSize: 0x3C }
  - { offsetInCU: 0x1E56F, offset: 0x1E56F, size: 0x8, addend: 0x0, symName: __ZNSt3__117__compressed_pairINS_12basic_stringIcNS_11char_traitsIcEENS_9allocatorIcEEE5__repES5_EC2B7v160006INS_18__default_init_tagESA_EEOT_OT0_, symObjAddr: 0xF304, symBinAddr: 0x100011924, symSize: 0x3C }
  - { offsetInCU: 0x1E5C7, offset: 0x1E5C7, size: 0x8, addend: 0x0, symName: __ZNSt3__122__compressed_pair_elemINS_12basic_stringIcNS_11char_traitsIcEENS_9allocatorIcEEE5__repELi0ELb0EEC2B7v160006ENS_18__default_init_tagE, symObjAddr: 0xF340, symBinAddr: 0x100011960, symSize: 0x14 }
  - { offsetInCU: 0x1E5FB, offset: 0x1E5FB, size: 0x8, addend: 0x0, symName: __ZNSt3__122__compressed_pair_elemINS_9allocatorIcEELi1ELb1EEC2B7v160006ENS_18__default_init_tagE, symObjAddr: 0xF354, symBinAddr: 0x100011974, symSize: 0x2C }
  - { offsetInCU: 0x1E62F, offset: 0x1E62F, size: 0x8, addend: 0x0, symName: __ZNSt3__19allocatorIcEC2B7v160006Ev, symObjAddr: 0xF380, symBinAddr: 0x1000119A0, symSize: 0x2C }
  - { offsetInCU: 0x1E659, offset: 0x1E659, size: 0x8, addend: 0x0, symName: __ZNSt3__116__non_trivial_ifILb1ENS_9allocatorIcEEEC2B7v160006Ev, symObjAddr: 0xF3AC, symBinAddr: 0x1000119CC, symSize: 0x14 }
  - { offsetInCU: 0x1E683, offset: 0x1E683, size: 0x8, addend: 0x0, symName: __ZNSt3__112basic_stringIcNS_11char_traitsIcEENS_9allocatorIcEEE13__get_pointerB7v160006Ev, symObjAddr: 0xF3D4, symBinAddr: 0x1000119F4, symSize: 0x54 }
  - { offsetInCU: 0x1E6A9, offset: 0x1E6A9, size: 0x8, addend: 0x0, symName: __ZNKSt3__112basic_stringIcNS_11char_traitsIcEENS_9allocatorIcEEE9__is_longB7v160006Ev, symObjAddr: 0xF428, symBinAddr: 0x100011A48, symSize: 0x38 }
  - { offsetInCU: 0x1E6CF, offset: 0x1E6CF, size: 0x8, addend: 0x0, symName: __ZNSt3__112basic_stringIcNS_11char_traitsIcEENS_9allocatorIcEEE18__get_long_pointerB7v160006Ev, symObjAddr: 0xF460, symBinAddr: 0x100011A80, symSize: 0x28 }
  - { offsetInCU: 0x1E6F5, offset: 0x1E6F5, size: 0x8, addend: 0x0, symName: __ZNSt3__112basic_stringIcNS_11char_traitsIcEENS_9allocatorIcEEE19__get_short_pointerB7v160006Ev, symObjAddr: 0xF488, symBinAddr: 0x100011AA8, symSize: 0x28 }
  - { offsetInCU: 0x1E71B, offset: 0x1E71B, size: 0x8, addend: 0x0, symName: __ZNKSt3__117__compressed_pairINS_12basic_stringIcNS_11char_traitsIcEENS_9allocatorIcEEE5__repES5_E5firstB7v160006Ev, symObjAddr: 0xF4B0, symBinAddr: 0x100011AD0, symSize: 0x24 }
  - { offsetInCU: 0x1E741, offset: 0x1E741, size: 0x8, addend: 0x0, symName: __ZNKSt3__122__compressed_pair_elemINS_12basic_stringIcNS_11char_traitsIcEENS_9allocatorIcEEE5__repELi0ELb0EE5__getB7v160006Ev, symObjAddr: 0xF4D4, symBinAddr: 0x100011AF4, symSize: 0x14 }
  - { offsetInCU: 0x1E767, offset: 0x1E767, size: 0x8, addend: 0x0, symName: __ZNSt3__117__compressed_pairINS_12basic_stringIcNS_11char_traitsIcEENS_9allocatorIcEEE5__repES5_E5firstB7v160006Ev, symObjAddr: 0xF4E8, symBinAddr: 0x100011B08, symSize: 0x24 }
  - { offsetInCU: 0x1E78D, offset: 0x1E78D, size: 0x8, addend: 0x0, symName: __ZNSt3__122__compressed_pair_elemINS_12basic_stringIcNS_11char_traitsIcEENS_9allocatorIcEEE5__repELi0ELb0EE5__getB7v160006Ev, symObjAddr: 0xF50C, symBinAddr: 0x100011B2C, symSize: 0x14 }
  - { offsetInCU: 0x1E7B3, offset: 0x1E7B3, size: 0x8, addend: 0x0, symName: __ZNSt3__114pointer_traitsIPcE10pointer_toB7v160006ERc, symObjAddr: 0xF520, symBinAddr: 0x100011B40, symSize: 0x14 }
  - { offsetInCU: 0x1E7D6, offset: 0x1E7D6, size: 0x8, addend: 0x0, symName: __ZNSt3__119ostreambuf_iteratorIcNS_11char_traitsIcEEEC2B7v160006ERNS_13basic_ostreamIcS2_EE, symObjAddr: 0xF534, symBinAddr: 0x100011B54, symSize: 0x54 }
  - { offsetInCU: 0x1E80E, offset: 0x1E80E, size: 0x8, addend: 0x0, symName: __ZNKSt3__19basic_iosIcNS_11char_traitsIcEEE5rdbufB7v160006Ev, symObjAddr: 0xF588, symBinAddr: 0x100011BA8, symSize: 0x24 }
  - { offsetInCU: 0x1E836, offset: 0x1E836, size: 0x8, addend: 0x0, symName: __ZNKSt3__18ios_base5rdbufB7v160006Ev, symObjAddr: 0xF5AC, symBinAddr: 0x100011BCC, symSize: 0x18 }
  - { offsetInCU: 0x1E85C, offset: 0x1E85C, size: 0x8, addend: 0x0, symName: __ZNSt3__111char_traitsIcE11eq_int_typeEii, symObjAddr: 0xF5C4, symBinAddr: 0x100011BE4, symSize: 0x28 }
  - { offsetInCU: 0x1E88D, offset: 0x1E88D, size: 0x8, addend: 0x0, symName: __ZNSt3__111char_traitsIcE3eofEv, symObjAddr: 0xF5EC, symBinAddr: 0x100011C0C, symSize: 0x8 }
  - { offsetInCU: 0x1E8A1, offset: 0x1E8A1, size: 0x8, addend: 0x0, symName: __ZNKSt3__19basic_iosIcNS_11char_traitsIcEEE5widenB7v160006Ec, symObjAddr: 0xF5F4, symBinAddr: 0x100011C14, symSize: 0x84 }
  - { offsetInCU: 0x1E90F, offset: 0x1E90F, size: 0x8, addend: 0x0, symName: __ZNKSt3__15ctypeIcE5widenB7v160006Ec, symObjAddr: 0xF6A4, symBinAddr: 0x100011CC4, symSize: 0x38 }
  - { offsetInCU: 0x1E944, offset: 0x1E944, size: 0x8, addend: 0x0, symName: __ZNSt3__18ios_base8setstateB7v160006Ej, symObjAddr: 0xF6DC, symBinAddr: 0x100011CFC, symSize: 0x34 }
  - { offsetInCU: 0x9D9F, offset: 0x289E5, size: 0x8, addend: 0x0, symName: __ZNSt3__1neB7v160006IP9dataPointEEbRKNS_11__wrap_iterIT_EES7_, symObjAddr: 0x64C, symBinAddr: 0x100012290, symSize: 0x34 }
  - { offsetInCU: 0x9DE2, offset: 0x28A28, size: 0x8, addend: 0x0, symName: __ZNSt3__14endlB7v160006IcNS_11char_traitsIcEEEERNS_13basic_ostreamIT_T0_EES7_, symObjAddr: 0x1504, symBinAddr: 0x1000130A0, symSize: 0x58 }
  - { offsetInCU: 0x9E22, offset: 0x28A68, size: 0x8, addend: 0x0, symName: __ZNSt3__1eqB7v160006IP9dataPointEEbRKNS_11__wrap_iterIT_EES7_, symObjAddr: 0x15EC, symBinAddr: 0x100013124, symSize: 0x48 }
  - { offsetInCU: 0x9E65, offset: 0x28AAB, size: 0x8, addend: 0x0, symName: __ZNSt3__130__uninitialized_allocator_copyB7v160006INS_9allocatorIdEEddLPv0EEEPT0_RT_PKS4_S9_S5_, symObjAddr: 0x3E60, symBinAddr: 0x10001340C, symSize: 0x38 }
  - { offsetInCU: 0x9EDD, offset: 0x28B23, size: 0x8, addend: 0x0, symName: __ZNSt3__14copyB7v160006IPKdPdEET0_T_S5_S4_, symObjAddr: 0x3F08, symBinAddr: 0x100013444, symSize: 0x40 }
  - { offsetInCU: 0x9F37, offset: 0x28B7D, size: 0x8, addend: 0x0, symName: __ZNSt3__16__copyB7v160006INS_17_ClassicAlgPolicyEPKdS3_PdEENS_4pairIT0_T2_EES6_T1_S7_, symObjAddr: 0x3F48, symBinAddr: 0x100013484, symSize: 0x44 }
  - { offsetInCU: 0x9FA3, offset: 0x28BE9, size: 0x8, addend: 0x0, symName: __ZNSt3__123__dispatch_copy_or_moveB7v160006INS_17_ClassicAlgPolicyENS_11__copy_loopIS1_EENS_14__copy_trivialEPKdS6_PdEENS_4pairIT2_T4_EES9_T3_SA_, symObjAddr: 0x3F8C, symBinAddr: 0x1000134C8, symSize: 0x44 }
  - { offsetInCU: 0xA021, offset: 0x28C67, size: 0x8, addend: 0x0, symName: __ZNSt3__121__unwrap_and_dispatchB7v160006INS_10__overloadINS_11__copy_loopINS_17_ClassicAlgPolicyEEENS_14__copy_trivialEEEPKdS8_PdLi0EEENS_4pairIT0_T2_EESB_T1_SC_, symObjAddr: 0x3FD0, symBinAddr: 0x10001350C, symSize: 0xB4 }
  - { offsetInCU: 0xA0AF, offset: 0x28CF5, size: 0x8, addend: 0x0, symName: __ZNSt3__114__unwrap_rangeB7v160006IPKdS2_EENS_4pairIT0_S4_EET_S6_, symObjAddr: 0x4084, symBinAddr: 0x1000135C0, symSize: 0x60 }
  - { offsetInCU: 0xA280, offset: 0x28EC6, size: 0x8, addend: 0x0, symName: __ZNSt3__19make_pairB7v160006IPKdPdEENS_4pairINS_18__unwrap_ref_decayIT_E4typeENS5_IT0_E4typeEEEOS6_OS9_, symObjAddr: 0x4150, symBinAddr: 0x100013668, symSize: 0x38 }
  - { offsetInCU: 0xA2CF, offset: 0x28F15, size: 0x8, addend: 0x0, symName: __ZNSt3__114__rewrap_rangeB7v160006IPKdS2_EET_S3_T0_, symObjAddr: 0x4188, symBinAddr: 0x1000136A0, symSize: 0x2C }
  - { offsetInCU: 0xA31B, offset: 0x28F61, size: 0x8, addend: 0x0, symName: __ZNSt3__19make_pairB7v160006IPKdS2_EENS_4pairINS_18__unwrap_ref_decayIT_E4typeENS4_IT0_E4typeEEEOS5_OS8_, symObjAddr: 0x41F0, symBinAddr: 0x1000136CC, symSize: 0x38 }
  - { offsetInCU: 0xA36A, offset: 0x28FB0, size: 0x8, addend: 0x0, symName: __ZNSt3__113__unwrap_iterB7v160006IPKdNS_18__unwrap_iter_implIS2_Lb1EEELi0EEEDTclsrT0_8__unwrapclsr3stdE7declvalIT_EEEES6_, symObjAddr: 0x4228, symBinAddr: 0x100013704, symSize: 0x24 }
  - { offsetInCU: 0xA4D5, offset: 0x2911B, size: 0x8, addend: 0x0, symName: __ZNSt3__112__to_addressB7v160006IKdEEPT_S3_, symObjAddr: 0x42E0, symBinAddr: 0x1000137BC, symSize: 0x14 }
  - { offsetInCU: 0xA50A, offset: 0x29150, size: 0x8, addend: 0x0, symName: __ZNSt3__119__copy_trivial_implB7v160006IKddEENS_4pairIPT_PT0_EES4_S4_S6_, symObjAddr: 0x42F4, symBinAddr: 0x1000137D0, symSize: 0x84 }
  - { offsetInCU: 0xA572, offset: 0x291B8, size: 0x8, addend: 0x0, symName: __ZNSt3__19make_pairB7v160006IRPKdPdEENS_4pairINS_18__unwrap_ref_decayIT_E4typeENS6_IT0_E4typeEEEOS7_OSA_, symObjAddr: 0x4378, symBinAddr: 0x100013854, symSize: 0x38 }
  - { offsetInCU: 0xA5C1, offset: 0x29207, size: 0x8, addend: 0x0, symName: __ZNSt3__113__rewrap_iterB7v160006IPKdS2_NS_18__unwrap_iter_implIS2_Lb1EEEEET_S5_T0_, symObjAddr: 0x44B4, symBinAddr: 0x10001396C, symSize: 0x3C }
  - { offsetInCU: 0xA616, offset: 0x2925C, size: 0x8, addend: 0x0, symName: __ZNSt3__142__uninitialized_allocator_move_if_noexceptB7v160006INS_9allocatorI9dataPointEENS_16reverse_iteratorIPS2_EES6_S6_EET2_RT_T0_T1_S7_, symObjAddr: 0x6600, symBinAddr: 0x100014148, symSize: 0x12C }
  - { offsetInCU: 0xA6B6, offset: 0x292FC, size: 0x8, addend: 0x0, symName: __ZNSt3__14swapB7v160006IP9dataPointEENS_9enable_ifIXaasr21is_move_constructibleIT_EE5valuesr18is_move_assignableIS4_EE5valueEvE4typeERS4_S7_, symObjAddr: 0x6778, symBinAddr: 0x100014274, symSize: 0x3C }
  - { offsetInCU: 0xA707, offset: 0x2934D, size: 0x8, addend: 0x0, symName: __ZNSt3__122__make_exception_guardB7v160006INS_29_AllocatorDestroyRangeReverseINS_9allocatorI9dataPointEENS_16reverse_iteratorIPS3_EEEEEENS_28__exception_guard_exceptionsIT_EESA_, symObjAddr: 0x688C, symBinAddr: 0x1000142B0, symSize: 0x4C }
  - { offsetInCU: 0xA73D, offset: 0x29383, size: 0x8, addend: 0x0, symName: __ZNSt3__119__allocator_destroyB7v160006INS_9allocatorI9dataPointEENS_16reverse_iteratorINS4_IPS2_EEEES7_EEvRT_T0_T1_, symObjAddr: 0x6E18, symBinAddr: 0x100014718, symSize: 0x70 }
  - { offsetInCU: 0xA7A2, offset: 0x293E8, size: 0x8, addend: 0x0, symName: __ZNSt3__1neB7v160006INS_16reverse_iteratorIP9dataPointEES4_EEbRKNS1_IT_EERKNS1_IT0_EE, symObjAddr: 0x6EC4, symBinAddr: 0x1000147C4, symSize: 0x60 }
  - { offsetInCU: 0xA7EE, offset: 0x29434, size: 0x8, addend: 0x0, symName: __ZNSt3__112__to_addressB7v160006INS_16reverse_iteratorINS1_IP9dataPointEEEEvEENS_5decayIDTclsr19__to_address_helperIT_EE6__callclsr3stdE7declvalIRKS7_EEEEE4typeES9_, symObjAddr: 0x6F24, symBinAddr: 0x100014824, symSize: 0x24 }
  - { offsetInCU: 0xA84D, offset: 0x29493, size: 0x8, addend: 0x0, symName: __ZNSt3__122__make_exception_guardB7v160006INS_6vectorI9dataPointNS_9allocatorIS2_EEE16__destroy_vectorEEENS_28__exception_guard_exceptionsIT_EES8_, symObjAddr: 0x7368, symBinAddr: 0x100014C40, symSize: 0x40 }
  - { offsetInCU: 0xA882, offset: 0x294C8, size: 0x8, addend: 0x0, symName: __ZNSt3__130__uninitialized_allocator_copyB7v160006INS_9allocatorI9dataPointEEPKS2_S5_PS2_EET2_RT_T0_T1_S7_, symObjAddr: 0x7980, symBinAddr: 0x1000151A4, symSize: 0xF4 }
  - { offsetInCU: 0xA920, offset: 0x29566, size: 0x8, addend: 0x0, symName: __ZNSt3__122__make_exception_guardB7v160006INS_6vectorImNS_9allocatorImEEE16__destroy_vectorEEENS_28__exception_guard_exceptionsIT_EES7_, symObjAddr: 0x7E70, symBinAddr: 0x1000153BC, symSize: 0x40 }
  - { offsetInCU: 0xA955, offset: 0x2959B, size: 0x8, addend: 0x0, symName: __ZNSt3__130__uninitialized_allocator_copyB7v160006INS_9allocatorImEEmmLPv0EEEPT0_RT_PKS4_S9_S5_, symObjAddr: 0x8654, symBinAddr: 0x100015578, symSize: 0x38 }
  - { offsetInCU: 0xA9CD, offset: 0x29613, size: 0x8, addend: 0x0, symName: __ZNSt3__14copyB7v160006IPKmPmEET0_T_S5_S4_, symObjAddr: 0x86FC, symBinAddr: 0x1000155B0, symSize: 0x40 }
  - { offsetInCU: 0xAA27, offset: 0x2966D, size: 0x8, addend: 0x0, symName: __ZNSt3__16__copyB7v160006INS_17_ClassicAlgPolicyEPKmS3_PmEENS_4pairIT0_T2_EES6_T1_S7_, symObjAddr: 0x873C, symBinAddr: 0x1000155F0, symSize: 0x44 }
  - { offsetInCU: 0xAA93, offset: 0x296D9, size: 0x8, addend: 0x0, symName: __ZNSt3__123__dispatch_copy_or_moveB7v160006INS_17_ClassicAlgPolicyENS_11__copy_loopIS1_EENS_14__copy_trivialEPKmS6_PmEENS_4pairIT2_T4_EES9_T3_SA_, symObjAddr: 0x8780, symBinAddr: 0x100015634, symSize: 0x44 }
  - { offsetInCU: 0xAB11, offset: 0x29757, size: 0x8, addend: 0x0, symName: __ZNSt3__121__unwrap_and_dispatchB7v160006INS_10__overloadINS_11__copy_loopINS_17_ClassicAlgPolicyEEENS_14__copy_trivialEEEPKmS8_PmLi0EEENS_4pairIT0_T2_EESB_T1_SC_, symObjAddr: 0x87C4, symBinAddr: 0x100015678, symSize: 0xB4 }
  - { offsetInCU: 0xAB9F, offset: 0x297E5, size: 0x8, addend: 0x0, symName: __ZNSt3__114__unwrap_rangeB7v160006IPKmS2_EENS_4pairIT0_S4_EET_S6_, symObjAddr: 0x8878, symBinAddr: 0x10001572C, symSize: 0x60 }
  - { offsetInCU: 0xACEE, offset: 0x29934, size: 0x8, addend: 0x0, symName: __ZNSt3__19make_pairB7v160006IPKmPmEENS_4pairINS_18__unwrap_ref_decayIT_E4typeENS5_IT0_E4typeEEEOS6_OS9_, symObjAddr: 0x8944, symBinAddr: 0x1000157D4, symSize: 0x38 }
  - { offsetInCU: 0xAD3D, offset: 0x29983, size: 0x8, addend: 0x0, symName: __ZNSt3__114__rewrap_rangeB7v160006IPKmS2_EET_S3_T0_, symObjAddr: 0x897C, symBinAddr: 0x10001580C, symSize: 0x2C }
  - { offsetInCU: 0xAD89, offset: 0x299CF, size: 0x8, addend: 0x0, symName: __ZNSt3__19make_pairB7v160006IPKmS2_EENS_4pairINS_18__unwrap_ref_decayIT_E4typeENS4_IT0_E4typeEEEOS5_OS8_, symObjAddr: 0x89E4, symBinAddr: 0x100015838, symSize: 0x38 }
  - { offsetInCU: 0xADD8, offset: 0x29A1E, size: 0x8, addend: 0x0, symName: __ZNSt3__113__unwrap_iterB7v160006IPKmNS_18__unwrap_iter_implIS2_Lb1EEELi0EEEDTclsrT0_8__unwrapclsr3stdE7declvalIT_EEEES6_, symObjAddr: 0x8A1C, symBinAddr: 0x100015870, symSize: 0x24 }
  - { offsetInCU: 0xAF43, offset: 0x29B89, size: 0x8, addend: 0x0, symName: __ZNSt3__112__to_addressB7v160006IKmEEPT_S3_, symObjAddr: 0x8AD4, symBinAddr: 0x100015928, symSize: 0x14 }
  - { offsetInCU: 0xAF78, offset: 0x29BBE, size: 0x8, addend: 0x0, symName: __ZNSt3__119__copy_trivial_implB7v160006IKmmEENS_4pairIPT_PT0_EES4_S4_S6_, symObjAddr: 0x8AE8, symBinAddr: 0x10001593C, symSize: 0x84 }
  - { offsetInCU: 0xAFE0, offset: 0x29C26, size: 0x8, addend: 0x0, symName: __ZNSt3__19make_pairB7v160006IRPKmPmEENS_4pairINS_18__unwrap_ref_decayIT_E4typeENS6_IT0_E4typeEEEOS7_OSA_, symObjAddr: 0x8B6C, symBinAddr: 0x1000159C0, symSize: 0x38 }
  - { offsetInCU: 0xB02F, offset: 0x29C75, size: 0x8, addend: 0x0, symName: __ZNSt3__113__rewrap_iterB7v160006IPKmS2_NS_18__unwrap_iter_implIS2_Lb1EEEEET_S5_T0_, symObjAddr: 0x8CA8, symBinAddr: 0x100015AD8, symSize: 0x3C }
  - { offsetInCU: 0xB6D6, offset: 0x2A31C, size: 0x8, addend: 0x0, symName: __ZNSt3__16vectorI9dataPointNS_9allocatorIS1_EEE26__swap_out_circular_bufferERNS_14__split_bufferIS1_RS3_EE, symObjAddr: 0x60D0, symBinAddr: 0x100013DCC, symSize: 0x118 }
  - { offsetInCU: 0xD798, offset: 0x2C3DE, size: 0x8, addend: 0x0, symName: __Z11buildBinSetv, symObjAddr: 0x0, symBinAddr: 0x100011D54, symSize: 0x2A0 }
  - { offsetInCU: 0xD853, offset: 0x2C499, size: 0x8, addend: 0x0, symName: __ZNSt3__16vectorIdNS_9allocatorIdEEEC1B7v160006ESt16initializer_listIdE, symObjAddr: 0x2F8, symBinAddr: 0x100011FF4, symSize: 0x3C }
  - { offsetInCU: 0xD88D, offset: 0x2C4D3, size: 0x8, addend: 0x0, symName: __ZNSt3__16vectorIdNS_9allocatorIdEEE9push_backB7v160006EOd, symObjAddr: 0x334, symBinAddr: 0x100012030, symSize: 0x6C }
  - { offsetInCU: 0xD8C4, offset: 0x2C50A, size: 0x8, addend: 0x0, symName: __ZNSt3__16vectorI9dataPointNS_9allocatorIS1_EEE9push_backB7v160006ERKS1_, symObjAddr: 0x400, symBinAddr: 0x10001209C, symSize: 0x6C }
  - { offsetInCU: 0xD900, offset: 0x2C546, size: 0x8, addend: 0x0, symName: __Z11buildAddSetv, symObjAddr: 0x4C4, symBinAddr: 0x100012108, symSize: 0xF4 }
  - { offsetInCU: 0xD977, offset: 0x2C5BD, size: 0x8, addend: 0x0, symName: __ZNSt3__16vectorI9dataPointNS_9allocatorIS1_EEEC1Em, symObjAddr: 0x5B8, symBinAddr: 0x1000121FC, symSize: 0x34 }
  - { offsetInCU: 0xD9B1, offset: 0x2C5F7, size: 0x8, addend: 0x0, symName: __ZNSt3__16vectorI9dataPointNS_9allocatorIS1_EEE5beginB7v160006Ev, symObjAddr: 0x5EC, symBinAddr: 0x100012230, symSize: 0x30 }
  - { offsetInCU: 0xD9D9, offset: 0x2C61F, size: 0x8, addend: 0x0, symName: __ZNSt3__16vectorI9dataPointNS_9allocatorIS1_EEE3endB7v160006Ev, symObjAddr: 0x61C, symBinAddr: 0x100012260, symSize: 0x30 }
  - { offsetInCU: 0xDA02, offset: 0x2C648, size: 0x8, addend: 0x0, symName: __ZNKSt3__111__wrap_iterIP9dataPointEdeB7v160006Ev, symObjAddr: 0x680, symBinAddr: 0x1000122C4, symSize: 0x18 }
  - { offsetInCU: 0xDA28, offset: 0x2C66E, size: 0x8, addend: 0x0, symName: __ZNSt3__111__wrap_iterIP9dataPointEppB7v160006Ev, symObjAddr: 0x6CC, symBinAddr: 0x1000122DC, symSize: 0x20 }
  - { offsetInCU: 0xDA4E, offset: 0x2C694, size: 0x8, addend: 0x0, symName: _main, symObjAddr: 0x6EC, symBinAddr: 0x1000122FC, symSize: 0xC74 }
  - { offsetInCU: 0xDAD2, offset: 0x2C718, size: 0x8, addend: 0x0, symName: __ZNSt3__16vectorI9dataPointNS_9allocatorIS1_EEEC1B7v160006ESt16initializer_listIS1_E, symObjAddr: 0x1360, symBinAddr: 0x100012F70, symSize: 0x3C }
  - { offsetInCU: 0xDB0C, offset: 0x2C752, size: 0x8, addend: 0x0, symName: __Z4sqrtB7v160006IiENSt3__19enable_ifIXsr3std11is_integralIT_EE5valueEdE4typeES2_, symObjAddr: 0x139C, symBinAddr: 0x100012FAC, symSize: 0x24 }
  - { offsetInCU: 0xDB44, offset: 0x2C78A, size: 0x8, addend: 0x0, symName: __ZNSt3__16vectorImNS_9allocatorImEEEC1B7v160006ESt16initializer_listImE, symObjAddr: 0x13C0, symBinAddr: 0x100012FD0, symSize: 0x3C }
  - { offsetInCU: 0xDB7F, offset: 0x2C7C5, size: 0x8, addend: 0x0, symName: __ZNSt3__16vectorI9dataPointNS_9allocatorIS1_EEEC1ERKS4_, symObjAddr: 0x13FC, symBinAddr: 0x10001300C, symSize: 0x34 }
  - { offsetInCU: 0xDBBA, offset: 0x2C800, size: 0x8, addend: 0x0, symName: __ZNSt3__16vectorImNS_9allocatorImEEEC1ERKS3_, symObjAddr: 0x1430, symBinAddr: 0x100013040, symSize: 0x34 }
  - { offsetInCU: 0xDBF5, offset: 0x2C83B, size: 0x8, addend: 0x0, symName: __ZNSt3__113basic_ostreamIcNS_11char_traitsIcEEElsB7v160006EPFRS3_S4_E, symObjAddr: 0x14D8, symBinAddr: 0x100013074, symSize: 0x2C }
  - { offsetInCU: 0xDE8D, offset: 0x2CAD3, size: 0x8, addend: 0x0, symName: __ZN2NND1Ev, symObjAddr: 0x155C, symBinAddr: 0x1000130F8, symSize: 0x2C }
  - { offsetInCU: 0xDEB9, offset: 0x2CAFF, size: 0x8, addend: 0x0, symName: __ZNKSt3__111__wrap_iterIP9dataPointE4baseB7v160006Ev, symObjAddr: 0x1634, symBinAddr: 0x10001316C, symSize: 0x18 }
  - { offsetInCU: 0xDEDF, offset: 0x2CB25, size: 0x8, addend: 0x0, symName: __ZN2NND2Ev, symObjAddr: 0x16BC, symBinAddr: 0x100013184, symSize: 0x84 }
  - { offsetInCU: 0xDF15, offset: 0x2CB5B, size: 0x8, addend: 0x0, symName: __ZNSt3__16vectorIdNS_9allocatorIdEEEC2B7v160006ESt16initializer_listIdE, symObjAddr: 0x3544, symBinAddr: 0x100013208, symSize: 0x128 }
  - { offsetInCU: 0xDF65, offset: 0x2CBAB, size: 0x8, addend: 0x0, symName: __ZNKSt16initializer_listIdE4sizeB7v160006Ev, symObjAddr: 0x36AC, symBinAddr: 0x100013330, symSize: 0x18 }
  - { offsetInCU: 0xDF8A, offset: 0x2CBD0, size: 0x8, addend: 0x0, symName: __ZNSt3__16vectorIdNS_9allocatorIdEEE18__construct_at_endIPKdLi0EEEvT_S7_m, symObjAddr: 0x3770, symBinAddr: 0x100013348, symSize: 0x8C }
  - { offsetInCU: 0xDFFE, offset: 0x2CC44, size: 0x8, addend: 0x0, symName: __ZNKSt16initializer_listIdE5beginB7v160006Ev, symObjAddr: 0x37FC, symBinAddr: 0x1000133D4, symSize: 0x18 }
  - { offsetInCU: 0xE024, offset: 0x2CC6A, size: 0x8, addend: 0x0, symName: __ZNKSt16initializer_listIdE3endB7v160006Ev, symObjAddr: 0x3814, symBinAddr: 0x1000133EC, symSize: 0x20 }
  - { offsetInCU: 0xE090, offset: 0x2CCD6, size: 0x8, addend: 0x0, symName: __ZNKSt3__114__copy_trivialclB7v160006IKddLi0EEENS_4pairIPT_PT0_EES5_S5_S7_, symObjAddr: 0x40E4, symBinAddr: 0x100013620, symSize: 0x48 }
  - { offsetInCU: 0xE116, offset: 0x2CD5C, size: 0x8, addend: 0x0, symName: __ZNSt3__14pairIPKdS2_EC1B7v160006IS2_S2_LPv0EEEOT_OT0_, symObjAddr: 0x424C, symBinAddr: 0x100013728, symSize: 0x3C }
  - { offsetInCU: 0xE174, offset: 0x2CDBA, size: 0x8, addend: 0x0, symName: __ZNSt3__14pairIPKdS2_EC2B7v160006IS2_S2_LPv0EEEOT_OT0_, symObjAddr: 0x4288, symBinAddr: 0x100013764, symSize: 0x34 }
  - { offsetInCU: 0xE1D2, offset: 0x2CE18, size: 0x8, addend: 0x0, symName: __ZNSt3__118__unwrap_iter_implIPKdLb1EE8__unwrapB7v160006ES2_, symObjAddr: 0x42BC, symBinAddr: 0x100013798, symSize: 0x24 }
  - { offsetInCU: 0xE1FF, offset: 0x2CE45, size: 0x8, addend: 0x0, symName: __ZNSt3__14pairIPKdPdEC1B7v160006IRS2_S3_LPv0EEEOT_OT0_, symObjAddr: 0x43B0, symBinAddr: 0x10001388C, symSize: 0x3C }
  - { offsetInCU: 0xE25D, offset: 0x2CEA3, size: 0x8, addend: 0x0, symName: __ZNSt3__14pairIPKdPdEC2B7v160006IRS2_S3_LPv0EEEOT_OT0_, symObjAddr: 0x43EC, symBinAddr: 0x1000138C8, symSize: 0x34 }
  - { offsetInCU: 0xE2BB, offset: 0x2CF01, size: 0x8, addend: 0x0, symName: __ZNSt3__14pairIPKdPdEC1B7v160006IS2_S3_LPv0EEEOT_OT0_, symObjAddr: 0x4444, symBinAddr: 0x1000138FC, symSize: 0x3C }
  - { offsetInCU: 0xE319, offset: 0x2CF5F, size: 0x8, addend: 0x0, symName: __ZNSt3__14pairIPKdPdEC2B7v160006IS2_S3_LPv0EEEOT_OT0_, symObjAddr: 0x4480, symBinAddr: 0x100013938, symSize: 0x34 }
  - { offsetInCU: 0xE377, offset: 0x2CFBD, size: 0x8, addend: 0x0, symName: __ZNSt3__118__unwrap_iter_implIPKdLb1EE8__rewrapB7v160006ES2_S2_, symObjAddr: 0x44F0, symBinAddr: 0x1000139A8, symSize: 0x50 }
  - { offsetInCU: 0xE3AD, offset: 0x2CFF3, size: 0x8, addend: 0x0, symName: __ZNSt3__16vectorIdNS_9allocatorIdEEE22__construct_one_at_endB7v160006IJdEEEvDpOT_, symObjAddr: 0x4600, symBinAddr: 0x1000139F8, symSize: 0x90 }
  - { offsetInCU: 0xE3FB, offset: 0x2D041, size: 0x8, addend: 0x0, symName: __ZNSt3__16vectorIdNS_9allocatorIdEEE21__push_back_slow_pathIdEEvOT_, symObjAddr: 0x4690, symBinAddr: 0x100013A88, symSize: 0xD8 }
  - { offsetInCU: 0xE45A, offset: 0x2D0A0, size: 0x8, addend: 0x0, symName: __ZNSt3__116allocator_traitsINS_9allocatorIdEEE9constructB7v160006IdJdEvEEvRS2_PT_DpOT0_, symObjAddr: 0x4768, symBinAddr: 0x100013B60, symSize: 0x34 }
  - { offsetInCU: 0xE4B1, offset: 0x2D0F7, size: 0x8, addend: 0x0, symName: __ZNSt3__19allocatorIdE9constructB7v160006IdJdEEEvPT_DpOT0_, symObjAddr: 0x479C, symBinAddr: 0x100013B94, symSize: 0x28 }
  - { offsetInCU: 0xE507, offset: 0x2D14D, size: 0x8, addend: 0x0, symName: __ZNSt3__16vectorI9dataPointNS_9allocatorIS1_EEE22__construct_one_at_endB7v160006IJRKS1_EEEvDpOT_, symObjAddr: 0x5D00, symBinAddr: 0x100013BBC, symSize: 0x90 }
  - { offsetInCU: 0xE555, offset: 0x2D19B, size: 0x8, addend: 0x0, symName: __ZNSt3__16vectorI9dataPointNS_9allocatorIS1_EEE21__push_back_slow_pathIRKS1_EEvOT_, symObjAddr: 0x5D90, symBinAddr: 0x100013C4C, symSize: 0xD8 }
  - { offsetInCU: 0xE5CD, offset: 0x2D213, size: 0x8, addend: 0x0, symName: __ZNSt3__116allocator_traitsINS_9allocatorI9dataPointEEE9constructB7v160006IS2_JRKS2_EvEEvRS3_PT_DpOT0_, symObjAddr: 0x5EDC, symBinAddr: 0x100013D24, symSize: 0x34 }
  - { offsetInCU: 0xE624, offset: 0x2D26A, size: 0x8, addend: 0x0, symName: __ZNSt3__19allocatorI9dataPointE9constructB7v160006IS1_JRKS1_EEEvPT_DpOT0_, symObjAddr: 0x5F88, symBinAddr: 0x100013D58, symSize: 0x30 }
  - { offsetInCU: 0xE67A, offset: 0x2D2C0, size: 0x8, addend: 0x0, symName: __ZNSt3__114__split_bufferI9dataPointRNS_9allocatorIS1_EEEC1EmmS4_, symObjAddr: 0x608C, symBinAddr: 0x100013D88, symSize: 0x44 }
  - { offsetInCU: 0xE6D0, offset: 0x2D316, size: 0x8, addend: 0x0, symName: __ZNSt3__114__split_bufferI9dataPointRNS_9allocatorIS1_EEED1Ev, symObjAddr: 0x61E8, symBinAddr: 0x100013EE4, symSize: 0x2C }
  - { offsetInCU: 0xE706, offset: 0x2D34C, size: 0x8, addend: 0x0, symName: __ZNSt3__114__split_bufferI9dataPointRNS_9allocatorIS1_EEEC2EmmS4_, symObjAddr: 0x632C, symBinAddr: 0x100013F10, symSize: 0xE0 }
  - { offsetInCU: 0xE779, offset: 0x2D3BF, size: 0x8, addend: 0x0, symName: __ZNSt3__117__compressed_pairIP9dataPointRNS_9allocatorIS1_EEEC1B7v160006IDnS5_EEOT_OT0_, symObjAddr: 0x640C, symBinAddr: 0x100013FF0, symSize: 0x3C }
  - { offsetInCU: 0xE7D1, offset: 0x2D417, size: 0x8, addend: 0x0, symName: __ZNSt3__114__split_bufferI9dataPointRNS_9allocatorIS1_EEE7__allocB7v160006Ev, symObjAddr: 0x6488, symBinAddr: 0x10001402C, symSize: 0x28 }
  - { offsetInCU: 0xE7F7, offset: 0x2D43D, size: 0x8, addend: 0x0, symName: __ZNSt3__114__split_bufferI9dataPointRNS_9allocatorIS1_EEE9__end_capB7v160006Ev, symObjAddr: 0x64B0, symBinAddr: 0x100014054, symSize: 0x28 }
  - { offsetInCU: 0xE81D, offset: 0x2D463, size: 0x8, addend: 0x0, symName: __ZNSt3__117__compressed_pairIP9dataPointRNS_9allocatorIS1_EEEC2B7v160006IDnS5_EEOT_OT0_, symObjAddr: 0x64D8, symBinAddr: 0x10001407C, symSize: 0x48 }
  - { offsetInCU: 0xE875, offset: 0x2D4BB, size: 0x8, addend: 0x0, symName: __ZNSt3__122__compressed_pair_elemIRNS_9allocatorI9dataPointEELi1ELb0EEC2B7v160006IS4_vEEOT_, symObjAddr: 0x6520, symBinAddr: 0x1000140C4, symSize: 0x20 }
  - { offsetInCU: 0xE8B7, offset: 0x2D4FD, size: 0x8, addend: 0x0, symName: __ZNSt3__117__compressed_pairIP9dataPointRNS_9allocatorIS1_EEE6secondB7v160006Ev, symObjAddr: 0x659C, symBinAddr: 0x1000140E4, symSize: 0x28 }
  - { offsetInCU: 0xE8DD, offset: 0x2D523, size: 0x8, addend: 0x0, symName: __ZNSt3__122__compressed_pair_elemIRNS_9allocatorI9dataPointEELi1ELb0EE5__getB7v160006Ev, symObjAddr: 0x65C4, symBinAddr: 0x10001410C, symSize: 0x18 }
  - { offsetInCU: 0xE903, offset: 0x2D549, size: 0x8, addend: 0x0, symName: __ZNSt3__117__compressed_pairIP9dataPointRNS_9allocatorIS1_EEE5firstB7v160006Ev, symObjAddr: 0x65DC, symBinAddr: 0x100014124, symSize: 0x24 }
  - { offsetInCU: 0xE929, offset: 0x2D56F, size: 0x8, addend: 0x0, symName: __ZNSt3__129_AllocatorDestroyRangeReverseINS_9allocatorI9dataPointEENS_16reverse_iteratorIPS2_EEEC1B7v160006ERS3_RS6_S9_, symObjAddr: 0x68D8, symBinAddr: 0x1000142FC, symSize: 0x44 }
  - { offsetInCU: 0xE985, offset: 0x2D5CB, size: 0x8, addend: 0x0, symName: __ZNSt3__116allocator_traitsINS_9allocatorI9dataPointEEE9constructB7v160006IS2_JS2_EvEEvRS3_PT_DpOT0_, symObjAddr: 0x6964, symBinAddr: 0x100014340, symSize: 0x34 }
  - { offsetInCU: 0xE9DC, offset: 0x2D622, size: 0x8, addend: 0x0, symName: __ZNSt3__128__exception_guard_exceptionsINS_29_AllocatorDestroyRangeReverseINS_9allocatorI9dataPointEENS_16reverse_iteratorIPS3_EEEEE10__completeB7v160006Ev, symObjAddr: 0x6A04, symBinAddr: 0x100014374, symSize: 0x1C }
  - { offsetInCU: 0xEA02, offset: 0x2D648, size: 0x8, addend: 0x0, symName: __ZNSt3__128__exception_guard_exceptionsINS_29_AllocatorDestroyRangeReverseINS_9allocatorI9dataPointEENS_16reverse_iteratorIPS3_EEEEED1B7v160006Ev, symObjAddr: 0x6A20, symBinAddr: 0x100014390, symSize: 0x2C }
  - { offsetInCU: 0xEA2C, offset: 0x2D672, size: 0x8, addend: 0x0, symName: __ZNSt3__128__exception_guard_exceptionsINS_29_AllocatorDestroyRangeReverseINS_9allocatorI9dataPointEENS_16reverse_iteratorIPS3_EEEEEC1B7v160006ES8_, symObjAddr: 0x6A4C, symBinAddr: 0x1000143BC, symSize: 0x34 }
  - { offsetInCU: 0xEA65, offset: 0x2D6AB, size: 0x8, addend: 0x0, symName: __ZNSt3__128__exception_guard_exceptionsINS_29_AllocatorDestroyRangeReverseINS_9allocatorI9dataPointEENS_16reverse_iteratorIPS3_EEEEEC2B7v160006ES8_, symObjAddr: 0x6A80, symBinAddr: 0x1000143F0, symSize: 0x30 }
  - { offsetInCU: 0xEA9E, offset: 0x2D6E4, size: 0x8, addend: 0x0, symName: __ZNSt3__129_AllocatorDestroyRangeReverseINS_9allocatorI9dataPointEENS_16reverse_iteratorIPS2_EEEC2B7v160006ERS3_RS6_S9_, symObjAddr: 0x6AB0, symBinAddr: 0x100014420, symSize: 0x38 }
  - { offsetInCU: 0xEAF5, offset: 0x2D73B, size: 0x8, addend: 0x0, symName: __ZNSt3__19allocatorI9dataPointE9constructB7v160006IS1_JS1_EEEvPT_DpOT0_, symObjAddr: 0x6AE8, symBinAddr: 0x100014458, symSize: 0x30 }
  - { offsetInCU: 0xEB4B, offset: 0x2D791, size: 0x8, addend: 0x0, symName: __ZN9dataPointC1EOS_, symObjAddr: 0x6B18, symBinAddr: 0x100014488, symSize: 0x34 }
  - { offsetInCU: 0xEB80, offset: 0x2D7C6, size: 0x8, addend: 0x0, symName: __ZN9dataPointC2EOS_, symObjAddr: 0x6B4C, symBinAddr: 0x1000144BC, symSize: 0x48 }
  - { offsetInCU: 0xEBB5, offset: 0x2D7FB, size: 0x8, addend: 0x0, symName: __ZNSt3__16vectorIdNS_9allocatorIdEEEC1B7v160006EOS3_, symObjAddr: 0x6B94, symBinAddr: 0x100014504, symSize: 0x34 }
  - { offsetInCU: 0xEBF0, offset: 0x2D836, size: 0x8, addend: 0x0, symName: __ZNSt3__16vectorIdNS_9allocatorIdEEEC2B7v160006EOS3_, symObjAddr: 0x6BC8, symBinAddr: 0x100014538, symSize: 0xDC }
  - { offsetInCU: 0xEC2B, offset: 0x2D871, size: 0x8, addend: 0x0, symName: __ZNSt3__128__exception_guard_exceptionsINS_29_AllocatorDestroyRangeReverseINS_9allocatorI9dataPointEENS_16reverse_iteratorIPS3_EEEEED2B7v160006Ev, symObjAddr: 0x6D14, symBinAddr: 0x100014614, symSize: 0x50 }
  - { offsetInCU: 0xEC55, offset: 0x2D89B, size: 0x8, addend: 0x0, symName: __ZNKSt3__129_AllocatorDestroyRangeReverseINS_9allocatorI9dataPointEENS_16reverse_iteratorIPS2_EEEclB7v160006Ev, symObjAddr: 0x6D64, symBinAddr: 0x100014664, symSize: 0xB4 }
  - { offsetInCU: 0xEC7C, offset: 0x2D8C2, size: 0x8, addend: 0x0, symName: __ZNSt3__116reverse_iteratorINS0_IP9dataPointEEEC1B7v160006ES3_, symObjAddr: 0x6E88, symBinAddr: 0x100014788, symSize: 0x3C }
  - { offsetInCU: 0xECB4, offset: 0x2D8FA, size: 0x8, addend: 0x0, symName: __ZNSt3__116reverse_iteratorINS0_IP9dataPointEEEppB7v160006Ev, symObjAddr: 0x6F48, symBinAddr: 0x100014848, symSize: 0x30 }
  - { offsetInCU: 0xECDA, offset: 0x2D920, size: 0x8, addend: 0x0, symName: __ZNKSt3__116reverse_iteratorINS0_IP9dataPointEEE4baseB7v160006Ev, symObjAddr: 0x6F78, symBinAddr: 0x100014878, symSize: 0x24 }
  - { offsetInCU: 0xED05, offset: 0x2D94B, size: 0x8, addend: 0x0, symName: __ZNSt3__119__to_address_helperINS_16reverse_iteratorINS1_IP9dataPointEEEEvE6__callB7v160006ERKS5_, symObjAddr: 0x6F9C, symBinAddr: 0x10001489C, symSize: 0x38 }
  - { offsetInCU: 0xED28, offset: 0x2D96E, size: 0x8, addend: 0x0, symName: __ZNKSt3__116reverse_iteratorINS0_IP9dataPointEEEptB7v160006Ev, symObjAddr: 0x6FD4, symBinAddr: 0x1000148D4, symSize: 0x24 }
  - { offsetInCU: 0xED4E, offset: 0x2D994, size: 0x8, addend: 0x0, symName: __ZNKSt3__116reverse_iteratorINS0_IP9dataPointEEEdeB7v160006Ev, symObjAddr: 0x6FF8, symBinAddr: 0x1000148F8, symSize: 0x34 }
  - { offsetInCU: 0xED82, offset: 0x2D9C8, size: 0x8, addend: 0x0, symName: __ZNSt3__116reverse_iteratorIP9dataPointEmmB7v160006Ev, symObjAddr: 0x702C, symBinAddr: 0x10001492C, symSize: 0x20 }
  - { offsetInCU: 0xEDA8, offset: 0x2D9EE, size: 0x8, addend: 0x0, symName: __ZNSt3__116reverse_iteratorINS0_IP9dataPointEEEC2B7v160006ES3_, symObjAddr: 0x704C, symBinAddr: 0x10001494C, symSize: 0x2C }
  - { offsetInCU: 0xEDE0, offset: 0x2DA26, size: 0x8, addend: 0x0, symName: __ZNSt3__114__split_bufferI9dataPointRNS_9allocatorIS1_EEED2Ev, symObjAddr: 0x70A0, symBinAddr: 0x100014978, symSize: 0x8C }
  - { offsetInCU: 0xEE0C, offset: 0x2DA52, size: 0x8, addend: 0x0, symName: __ZNSt3__114__split_bufferI9dataPointRNS_9allocatorIS1_EEE5clearB7v160006Ev, symObjAddr: 0x712C, symBinAddr: 0x100014A04, symSize: 0x28 }
  - { offsetInCU: 0xEE32, offset: 0x2DA78, size: 0x8, addend: 0x0, symName: __ZNKSt3__114__split_bufferI9dataPointRNS_9allocatorIS1_EEE8capacityB7v160006Ev, symObjAddr: 0x7154, symBinAddr: 0x100014A2C, symSize: 0x40 }
  - { offsetInCU: 0xEE58, offset: 0x2DA9E, size: 0x8, addend: 0x0, symName: __ZNSt3__114__split_bufferI9dataPointRNS_9allocatorIS1_EEE17__destruct_at_endB7v160006EPS1_, symObjAddr: 0x7194, symBinAddr: 0x100014A6C, symSize: 0x2C }
  - { offsetInCU: 0xEE8B, offset: 0x2DAD1, size: 0x8, addend: 0x0, symName: __ZNSt3__114__split_bufferI9dataPointRNS_9allocatorIS1_EEE17__destruct_at_endB7v160006EPS1_NS_17integral_constantIbLb0EEE, symObjAddr: 0x71C0, symBinAddr: 0x100014A98, symSize: 0x80 }
  - { offsetInCU: 0xEECC, offset: 0x2DB12, size: 0x8, addend: 0x0, symName: __ZNKSt3__114__split_bufferI9dataPointRNS_9allocatorIS1_EEE9__end_capB7v160006Ev, symObjAddr: 0x7240, symBinAddr: 0x100014B18, symSize: 0x28 }
  - { offsetInCU: 0xEEF2, offset: 0x2DB38, size: 0x8, addend: 0x0, symName: __ZNKSt3__117__compressed_pairIP9dataPointRNS_9allocatorIS1_EEE5firstB7v160006Ev, symObjAddr: 0x7268, symBinAddr: 0x100014B40, symSize: 0x24 }
  - { offsetInCU: 0xEF18, offset: 0x2DB5E, size: 0x8, addend: 0x0, symName: __ZNSt3__16vectorI9dataPointNS_9allocatorIS1_EEEC2Em, symObjAddr: 0x728C, symBinAddr: 0x100014B64, symSize: 0xDC }
  - { offsetInCU: 0xEF67, offset: 0x2DBAD, size: 0x8, addend: 0x0, symName: __ZNSt3__16vectorI9dataPointNS_9allocatorIS1_EEE18__construct_at_endEm, symObjAddr: 0x745C, symBinAddr: 0x100014C80, symSize: 0xC8 }
  - { offsetInCU: 0xEFDA, offset: 0x2DC20, size: 0x8, addend: 0x0, symName: __ZNSt3__128__exception_guard_exceptionsINS_6vectorI9dataPointNS_9allocatorIS2_EEE16__destroy_vectorEE10__completeB7v160006Ev, symObjAddr: 0x7524, symBinAddr: 0x100014D48, symSize: 0x1C }
  - { offsetInCU: 0xF000, offset: 0x2DC46, size: 0x8, addend: 0x0, symName: __ZNSt3__128__exception_guard_exceptionsINS_6vectorI9dataPointNS_9allocatorIS2_EEE16__destroy_vectorEED1B7v160006Ev, symObjAddr: 0x7540, symBinAddr: 0x100014D64, symSize: 0x2C }
  - { offsetInCU: 0xF02A, offset: 0x2DC70, size: 0x8, addend: 0x0, symName: __ZNSt3__128__exception_guard_exceptionsINS_6vectorI9dataPointNS_9allocatorIS2_EEE16__destroy_vectorEEC1B7v160006ES6_, symObjAddr: 0x756C, symBinAddr: 0x100014D90, symSize: 0x34 }
  - { offsetInCU: 0xF062, offset: 0x2DCA8, size: 0x8, addend: 0x0, symName: __ZNSt3__128__exception_guard_exceptionsINS_6vectorI9dataPointNS_9allocatorIS2_EEE16__destroy_vectorEEC2B7v160006ES6_, symObjAddr: 0x75A0, symBinAddr: 0x100014DC4, symSize: 0x24 }
  - { offsetInCU: 0xF09A, offset: 0x2DCE0, size: 0x8, addend: 0x0, symName: __ZNSt3__116allocator_traitsINS_9allocatorI9dataPointEEE9constructB7v160006IS2_JEvEEvRS3_PT_DpOT0_, symObjAddr: 0x75C4, symBinAddr: 0x100014DE8, symSize: 0x2C }
  - { offsetInCU: 0xF0DC, offset: 0x2DD22, size: 0x8, addend: 0x0, symName: __ZNSt3__19allocatorI9dataPointE9constructB7v160006IS1_JEEEvPT_DpOT0_, symObjAddr: 0x75F0, symBinAddr: 0x100014E14, symSize: 0x3C }
  - { offsetInCU: 0xF11E, offset: 0x2DD64, size: 0x8, addend: 0x0, symName: __ZN9dataPointC1Ev, symObjAddr: 0x762C, symBinAddr: 0x100014E50, symSize: 0x2C }
  - { offsetInCU: 0xF14A, offset: 0x2DD90, size: 0x8, addend: 0x0, symName: __ZN9dataPointC2Ev, symObjAddr: 0x7658, symBinAddr: 0x100014E7C, symSize: 0x38 }
  - { offsetInCU: 0xF176, offset: 0x2DDBC, size: 0x8, addend: 0x0, symName: __ZNSt3__128__exception_guard_exceptionsINS_6vectorI9dataPointNS_9allocatorIS2_EEE16__destroy_vectorEED2B7v160006Ev, symObjAddr: 0x7690, symBinAddr: 0x100014EB4, symSize: 0x50 }
  - { offsetInCU: 0xF1A0, offset: 0x2DDE6, size: 0x8, addend: 0x0, symName: __ZNSt3__16vectorI9dataPointNS_9allocatorIS1_EEE11__make_iterB7v160006EPS1_, symObjAddr: 0x76E0, symBinAddr: 0x100014F04, symSize: 0x34 }
  - { offsetInCU: 0xF1D5, offset: 0x2DE1B, size: 0x8, addend: 0x0, symName: __ZNSt3__111__wrap_iterIP9dataPointEC1B7v160006EPKvS2_, symObjAddr: 0x7714, symBinAddr: 0x100014F38, symSize: 0x3C }
  - { offsetInCU: 0xF21B, offset: 0x2DE61, size: 0x8, addend: 0x0, symName: __ZNSt3__111__wrap_iterIP9dataPointEC2B7v160006EPKvS2_, symObjAddr: 0x7750, symBinAddr: 0x100014F74, symSize: 0x24 }
  - { offsetInCU: 0xF261, offset: 0x2DEA7, size: 0x8, addend: 0x0, symName: __ZNSt3__16vectorI9dataPointNS_9allocatorIS1_EEEC2B7v160006ESt16initializer_listIS1_E, symObjAddr: 0x7774, symBinAddr: 0x100014F98, symSize: 0x128 }
  - { offsetInCU: 0xF2B1, offset: 0x2DEF7, size: 0x8, addend: 0x0, symName: __ZNKSt16initializer_listI9dataPointE4sizeB7v160006Ev, symObjAddr: 0x789C, symBinAddr: 0x1000150C0, symSize: 0x18 }
  - { offsetInCU: 0xF2D6, offset: 0x2DF1C, size: 0x8, addend: 0x0, symName: __ZNSt3__16vectorI9dataPointNS_9allocatorIS1_EEE18__construct_at_endIPKS1_Li0EEEvT_S8_m, symObjAddr: 0x78B4, symBinAddr: 0x1000150D8, symSize: 0x8C }
  - { offsetInCU: 0xF34A, offset: 0x2DF90, size: 0x8, addend: 0x0, symName: __ZNKSt16initializer_listI9dataPointE5beginB7v160006Ev, symObjAddr: 0x7940, symBinAddr: 0x100015164, symSize: 0x18 }
  - { offsetInCU: 0xF370, offset: 0x2DFB6, size: 0x8, addend: 0x0, symName: __ZNKSt16initializer_listI9dataPointE3endB7v160006Ev, symObjAddr: 0x7958, symBinAddr: 0x10001517C, symSize: 0x28 }
  - { offsetInCU: 0xF396, offset: 0x2DFDC, size: 0x8, addend: 0x0, symName: __ZNSt3__16vectorImNS_9allocatorImEEEC2B7v160006ESt16initializer_listImE, symObjAddr: 0x7D10, symBinAddr: 0x100015298, symSize: 0x124 }
  - { offsetInCU: 0xF3E7, offset: 0x2E02D, size: 0x8, addend: 0x0, symName: __ZNKSt16initializer_listImE4sizeB7v160006Ev, symObjAddr: 0x7EF4, symBinAddr: 0x1000153FC, symSize: 0x18 }
  - { offsetInCU: 0xF40C, offset: 0x2E052, size: 0x8, addend: 0x0, symName: __ZNSt3__16vectorImNS_9allocatorImEEE18__construct_at_endIPKmLi0EEEvT_S7_m, symObjAddr: 0x7FB8, symBinAddr: 0x100015414, symSize: 0x8C }
  - { offsetInCU: 0xF480, offset: 0x2E0C6, size: 0x8, addend: 0x0, symName: __ZNKSt16initializer_listImE5beginB7v160006Ev, symObjAddr: 0x8044, symBinAddr: 0x1000154A0, symSize: 0x18 }
  - { offsetInCU: 0xF4A6, offset: 0x2E0EC, size: 0x8, addend: 0x0, symName: __ZNKSt16initializer_listImE3endB7v160006Ev, symObjAddr: 0x805C, symBinAddr: 0x1000154B8, symSize: 0x20 }
  - { offsetInCU: 0xF4CC, offset: 0x2E112, size: 0x8, addend: 0x0, symName: __ZNSt3__128__exception_guard_exceptionsINS_6vectorImNS_9allocatorImEEE16__destroy_vectorEE10__completeB7v160006Ev, symObjAddr: 0x807C, symBinAddr: 0x1000154D8, symSize: 0x1C }
  - { offsetInCU: 0xF4F2, offset: 0x2E138, size: 0x8, addend: 0x0, symName: __ZNSt3__128__exception_guard_exceptionsINS_6vectorImNS_9allocatorImEEE16__destroy_vectorEED1B7v160006Ev, symObjAddr: 0x8098, symBinAddr: 0x1000154F4, symSize: 0x2C }
  - { offsetInCU: 0xF51C, offset: 0x2E162, size: 0x8, addend: 0x0, symName: __ZNSt3__128__exception_guard_exceptionsINS_6vectorImNS_9allocatorImEEE16__destroy_vectorEEC1B7v160006ES5_, symObjAddr: 0x818C, symBinAddr: 0x100015520, symSize: 0x34 }
  - { offsetInCU: 0xF554, offset: 0x2E19A, size: 0x8, addend: 0x0, symName: __ZNSt3__128__exception_guard_exceptionsINS_6vectorImNS_9allocatorImEEE16__destroy_vectorEEC2B7v160006ES5_, symObjAddr: 0x81C0, symBinAddr: 0x100015554, symSize: 0x24 }
  - { offsetInCU: 0xF5C8, offset: 0x2E20E, size: 0x8, addend: 0x0, symName: __ZNKSt3__114__copy_trivialclB7v160006IKmmLi0EEENS_4pairIPT_PT0_EES5_S5_S7_, symObjAddr: 0x88D8, symBinAddr: 0x10001578C, symSize: 0x48 }
  - { offsetInCU: 0xF64E, offset: 0x2E294, size: 0x8, addend: 0x0, symName: __ZNSt3__14pairIPKmS2_EC1B7v160006IS2_S2_LPv0EEEOT_OT0_, symObjAddr: 0x8A40, symBinAddr: 0x100015894, symSize: 0x3C }
  - { offsetInCU: 0xF6AC, offset: 0x2E2F2, size: 0x8, addend: 0x0, symName: __ZNSt3__14pairIPKmS2_EC2B7v160006IS2_S2_LPv0EEEOT_OT0_, symObjAddr: 0x8A7C, symBinAddr: 0x1000158D0, symSize: 0x34 }
  - { offsetInCU: 0xF70A, offset: 0x2E350, size: 0x8, addend: 0x0, symName: __ZNSt3__118__unwrap_iter_implIPKmLb1EE8__unwrapB7v160006ES2_, symObjAddr: 0x8AB0, symBinAddr: 0x100015904, symSize: 0x24 }
  - { offsetInCU: 0xF737, offset: 0x2E37D, size: 0x8, addend: 0x0, symName: __ZNSt3__14pairIPKmPmEC1B7v160006IRS2_S3_LPv0EEEOT_OT0_, symObjAddr: 0x8BA4, symBinAddr: 0x1000159F8, symSize: 0x3C }
  - { offsetInCU: 0xF795, offset: 0x2E3DB, size: 0x8, addend: 0x0, symName: __ZNSt3__14pairIPKmPmEC2B7v160006IRS2_S3_LPv0EEEOT_OT0_, symObjAddr: 0x8BE0, symBinAddr: 0x100015A34, symSize: 0x34 }
  - { offsetInCU: 0xF7F3, offset: 0x2E439, size: 0x8, addend: 0x0, symName: __ZNSt3__14pairIPKmPmEC1B7v160006IS2_S3_LPv0EEEOT_OT0_, symObjAddr: 0x8C38, symBinAddr: 0x100015A68, symSize: 0x3C }
  - { offsetInCU: 0xF851, offset: 0x2E497, size: 0x8, addend: 0x0, symName: __ZNSt3__14pairIPKmPmEC2B7v160006IS2_S3_LPv0EEEOT_OT0_, symObjAddr: 0x8C74, symBinAddr: 0x100015AA4, symSize: 0x34 }
  - { offsetInCU: 0xF8AF, offset: 0x2E4F5, size: 0x8, addend: 0x0, symName: __ZNSt3__118__unwrap_iter_implIPKmLb1EE8__rewrapB7v160006ES2_S2_, symObjAddr: 0x8CE4, symBinAddr: 0x100015B14, symSize: 0x50 }
  - { offsetInCU: 0xF8E0, offset: 0x2E526, size: 0x8, addend: 0x0, symName: __ZNSt3__128__exception_guard_exceptionsINS_6vectorImNS_9allocatorImEEE16__destroy_vectorEED2B7v160006Ev, symObjAddr: 0x8DA4, symBinAddr: 0x100015B64, symSize: 0x50 }
  - { offsetInCU: 0xF90A, offset: 0x2E550, size: 0x8, addend: 0x0, symName: __ZNSt3__16vectorI9dataPointNS_9allocatorIS1_EEEC2ERKS4_, symObjAddr: 0x912C, symBinAddr: 0x100015BB4, symSize: 0x110 }
  - { offsetInCU: 0xF969, offset: 0x2E5AF, size: 0x8, addend: 0x0, symName: __ZNSt3__116allocator_traitsINS_9allocatorI9dataPointEEE37select_on_container_copy_constructionB7v160006IS3_vvEES3_RKS3_, symObjAddr: 0x923C, symBinAddr: 0x100015CC4, symSize: 0x10 }
  - { offsetInCU: 0xF99D, offset: 0x2E5E3, size: 0x8, addend: 0x0, symName: __ZNSt3__117__compressed_pairIP9dataPointNS_9allocatorIS1_EEEC1B7v160006IDnS4_EEOT_OT0_, symObjAddr: 0x924C, symBinAddr: 0x100015CD4, symSize: 0x3C }
  - { offsetInCU: 0xF9F5, offset: 0x2E63B, size: 0x8, addend: 0x0, symName: __ZNSt3__117__compressed_pairIP9dataPointNS_9allocatorIS1_EEEC2B7v160006IDnS4_EEOT_OT0_, symObjAddr: 0x9314, symBinAddr: 0x100015D10, symSize: 0x44 }
  - { offsetInCU: 0xFA4D, offset: 0x2E693, size: 0x8, addend: 0x0, symName: __ZNSt3__122__compressed_pair_elemINS_9allocatorI9dataPointEELi1ELb1EEC2B7v160006IS3_vEEOT_, symObjAddr: 0x9358, symBinAddr: 0x100015D54, symSize: 0x18 }
  - { offsetInCU: 0xFA8F, offset: 0x2E6D5, size: 0x8, addend: 0x0, symName: __ZNSt3__16vectorImNS_9allocatorImEEEC2ERKS3_, symObjAddr: 0x94C8, symBinAddr: 0x100015D6C, symSize: 0x110 }
  - { offsetInCU: 0xFAEE, offset: 0x2E734, size: 0x8, addend: 0x0, symName: __ZNSt3__116allocator_traitsINS_9allocatorImEEE37select_on_container_copy_constructionB7v160006IS2_vvEES2_RKS2_, symObjAddr: 0x95D8, symBinAddr: 0x100015E7C, symSize: 0x10 }
  - { offsetInCU: 0xFB22, offset: 0x2E768, size: 0x8, addend: 0x0, symName: __ZNSt3__117__compressed_pairIPmNS_9allocatorImEEEC1B7v160006IDnS3_EEOT_OT0_, symObjAddr: 0x95E8, symBinAddr: 0x100015E8C, symSize: 0x3C }
  - { offsetInCU: 0xFB7A, offset: 0x2E7C0, size: 0x8, addend: 0x0, symName: __ZNSt3__117__compressed_pairIPmNS_9allocatorImEEEC2B7v160006IDnS3_EEOT_OT0_, symObjAddr: 0x96B0, symBinAddr: 0x100015EC8, symSize: 0x44 }
  - { offsetInCU: 0xFBD2, offset: 0x2E818, size: 0x8, addend: 0x0, symName: __ZNSt3__122__compressed_pair_elemINS_9allocatorImEELi1ELb1EEC2B7v160006IS2_vEEOT_, symObjAddr: 0x96F4, symBinAddr: 0x100015F0C, symSize: 0x18 }
...
